SH SERIES C/C++ Compiler (Ver. checker(2003.03.17))                                              11-May-2005 16:20:01  PAGE    1

************ OBJECT LISTING ************

FILE NAME: dadcrd.c

SCT OFFSET   CODE       C LABEL     INSTRUCTION OPERAND    COMMENT

P   00000000              _dad_dpm_read:                   ; function: dad_dpm_read
                                                           ; frame size=52
    00000000 2FA6                   MOV.L       R10,@-R15
    00000002 2FB6                   MOV.L       R11,@-R15
    00000004 2FC6                   MOV.L       R12,@-R15
    00000006 2FD6                   MOV.L       R13,@-R15
    00000008 2FE6                   MOV.L       R14,@-R15
    0000000A 4F22                   STS.L       PR,@-R15
    0000000C 7FE4                   ADD         #-28,R15
    0000000E 6E63                   MOV         R6,R14
    00000010 6A53                   MOV         R5,R10
    00000012 6D43                   MOV         R4,R13
    00000014 6B73                   MOV         R7,R11
    00000016 E300                   MOV         #0,R3      ; H'00000000
    00000018 1F33                   MOV.L       R3,@(12,R15)
    0000001A 2EE8                   TST         R14,R14
    0000001C 8B02                   BF          L12
    0000001E E7FF                   MOV         #-1,R7     ; H'FFFFFFFF
    00000020 A0B2                   BRA         L13
    00000022 0009                   NOP
    00000024              L12:
    00000024 D27D                   MOV.L       L36+2,R2   ; _dadc_ctxt_tbl
    00000026 65D3                   MOV         R13,R5
    00000028 6653                   MOV         R5,R6
    0000002A E305                   MOV         #5,R3      ; H'00000005
    0000002C 463D                   SHLD        R3,R6
    0000002E 326C                   ADD         R6,R2
    00000030 6C23                   MOV         R2,R12
    00000032 62C2                   MOV.L       @R12,R2
    00000034 56C6                   MOV.L       @(24,R12),R6
    00000036 326C                   ADD         R6,R2
    00000038 6323                   MOV         R2,R3
    0000003A 1F31                   MOV.L       R3,@(4,R15)
    0000003C D378                   MOV.L       L36+6,R3   ; _local_disable
    0000003E 430B                   JSR         @R3
    00000040 0009                   NOP
    00000042 D278                   MOV.L       L36+10,R2  ; __$dad_rx_nest
    00000044 60D3                   MOV         R13,R0
    00000046 062C                   MOV.B       @(R0,R2),R6
    00000048 626C                   EXTU.B      R6,R2
    0000004A 622C                   EXTU.B      R2,R2
    0000004C 6623                   MOV         R2,R6
    0000004E 7601                   ADD         #1,R6
    00000050 D274                   MOV.L       L36+10,R2  ; __$dad_rx_nest
    00000052 60D3                   MOV         R13,R0
    00000054 0264                   MOV.B       R6,@(R0,R2)
    00000056 D273                   MOV.L       L36+10,R2  ; __$dad_rx_nest
    00000058 60D3                   MOV         R13,R0
    0000005A 062C                   MOV.B       @(R0,R2),R6
    0000005C 626C                   EXTU.B      R6,R2
    0000005E 622C                   EXTU.B      R2,R2
    00000060 E301                   MOV         #1,R3      ; H'00000001
    00000062 3237                   CMP/GT      R3,R2
    00000064 8B11                   BF          L15
    00000066 E300                   MOV         #0,R3      ; H'00000000
    00000068 1F36                   MOV.L       R3,@(24,R15)
    0000006A E601                   MOV         #1,R6      ; H'00000001
    0000006C D46E                   MOV.L       L36+14,R4  ; __$dad_rx_sem
    0000006E 65D3                   MOV         R13,R5
    00000070 6253                   MOV         R5,R2
    00000072 4208                   SHLL2       R2
    00000074 4200                   SHLL        R2
    00000076 7204                   ADD         #4,R2
    00000078 6023                   MOV         R2,R0
    0000007A 054E                   MOV.L       @(R0,R4),R5
    0000007C E700                   MOV         #0,R7      ; H'00000000
    0000007E 54F6                   MOV.L       @(24,R15),R4
    00000080 D36A                   MOV.L       L36+18,R3  ; _WAI_SEM
    00000082 430B                   JSR         @R3
    00000084 0009                   NOP
    00000086 6303                   MOV         R0,R3
    00000088 1F33                   MOV.L       R3,@(12,R15)
    0000008A              L15:
    0000008A D369                   MOV.L       L36+22,R3  ; _local_enable
    0000008C 430B                   JSR         @R3
    0000008E 0009                   NOP
    00000090 53F3                   MOV.L       @(12,R15),R3
    00000092 51F3                   MOV.L       @(12,R15),R1
    00000094 2138                   TST         R3,R1
    00000096 8905                   BT          L17
    00000098 53F3                   MOV.L       @(12,R15),R3
    0000009A 6733                   MOV         R3,R7
    0000009C D365                   MOV.L       L36+26,R3  ; H'80000000
    0000009E 273B                   OR          R3,R7
    000000A0 A072                   BRA         L13
    000000A2 0009                   NOP
    000000A4              L17:
    000000A4 53F1                   MOV.L       @(4,R15),R3
    000000A6 6631                   MOV.W       @R3,R6
    000000A8 6263                   MOV         R6,R2
    000000AA 6723                   MOV         R2,R7
    000000AC 677F                   EXTS.W      R7,R7
    000000AE 2778                   TST         R7,R7
    000000B0 8926                   BT          L19
    000000B2 62B3                   MOV         R11,R2
    000000B4 7202                   ADD         #2,R2
    000000B6 3728                   SUB         R2,R7
    000000B8 677F                   EXTS.W      R7,R7
    000000BA 6073                   MOV         R7,R0
    000000BC 81F4                   MOV.W       R0,@(8,R15)
    000000BE 4715                   CMP/PL      R7
    000000C0 8B19                   BF          L21
    000000C2 6273                   MOV         R7,R2
    000000C4 32E6                   CMP/HI      R14,R2
    000000C6 8916                   BT          L21
    000000C8 6373                   MOV         R7,R3
    000000CA 1F36                   MOV.L       R3,@(24,R15)
    000000CC 53F1                   MOV.L       @(4,R15),R3
    000000CE 6533                   MOV         R3,R5
    000000D0 62B3                   MOV         R11,R2
    000000D2 622D                   EXTU.W      R2,R2
    000000D4 6623                   MOV         R2,R6
    000000D6 7602                   ADD         #2,R6
    000000D8 356C                   ADD         R6,R5
    000000DA 64A3                   MOV         R10,R4
    000000DC 56F6                   MOV.L       @(24,R15),R6
    000000DE D356                   MOV.L       L36+30,R3  ; _memcpy
    000000E0 430B                   JSR         @R3
    000000E2 0009                   NOP
    000000E4 64A3                   MOV         R10,R4
    000000E6 85F4                   MOV.W       @(8,R15),R0
    000000E8 6703                   MOV         R0,R7
    000000EA 6573                   MOV         R7,R5
    000000EC D353                   MOV.L       L36+34,R3  ; _inverse_dadc
    000000EE 430B                   JSR         @R3
    000000F0 0009                   NOP
    000000F2 A008                   BRA         L23
    000000F4 0009                   NOP
    000000F6              L21:
    000000F6 E7FF                   MOV         #-1,R7     ; H'FFFFFFFF
    000000F8 6073                   MOV         R7,R0
    000000FA 81F4                   MOV.W       R0,@(8,R15)
    000000FC A003                   BRA         L23
    000000FE 0009                   NOP
    00000100              L19:
    00000100 E7FF                   MOV         #-1,R7     ; H'FFFFFFFF
    00000102 6073                   MOV         R7,R0
    00000104 81F4                   MOV.W       R0,@(8,R15)
    00000106              L23:
    00000106 E600                   MOV         #0,R6      ; H'00000000
    00000108 6667                   NOT         R6,R6
    0000010A 1F64                   MOV.L       R6,@(16,R15)
    0000010C              L24:
    0000010C 56F4                   MOV.L       @(16,R15),R6
    0000010E 6463                   MOV         R6,R4
    00000110 65C2                   MOV.L       @R12,R5
    00000112 52C3                   MOV.L       @(12,R12),R2
    00000114 352C                   ADD         R2,R5
    00000116 644D                   EXTU.W      R4,R4
    00000118 D349                   MOV.L       L36+38,R3  ; _verify_5561puti
    0000011A 430B                   JSR         @R3
    0000011C 0009                   NOP
    0000011E 6203                   MOV         R0,R2
    00000120 2228                   TST         R2,R2
    00000122 8BF3                   BF          L24
    00000124 D33E                   MOV.L       L36+6,R3   ; _local_disable
    00000126 430B                   JSR         @R3
    00000128 0009                   NOP
    0000012A D63E                   MOV.L       L36+10,R6  ; __$dad_rx_nest
    0000012C 60D3                   MOV         R13,R0
    0000012E 026C                   MOV.B       @(R0,R6),R2
    00000130 662C                   EXTU.B      R2,R6
    00000132 666C                   EXTU.B      R6,R6
    00000134 6263                   MOV         R6,R2
    00000136 72FF                   ADD         #-1,R2
    00000138 D63A                   MOV.L       L36+10,R6  ; __$dad_rx_nest
    0000013A 60D3                   MOV         R13,R0
    0000013C 0624                   MOV.B       R2,@(R0,R6)
    0000013E D239                   MOV.L       L36+10,R2  ; __$dad_rx_nest
    00000140 60D3                   MOV         R13,R0
    00000142 062C                   MOV.B       @(R0,R2),R6
    00000144 626C                   EXTU.B      R6,R2
    00000146 622C                   EXTU.B      R2,R2
    00000148 E301                   MOV         #1,R3      ; H'00000001
    0000014A 3233                   CMP/GE      R3,R2
    0000014C 8B0D                   BF          L27
    0000014E E601                   MOV         #1,R6      ; H'00000001
    00000150 D535                   MOV.L       L36+14,R5  ; __$dad_rx_sem
    00000152 62D3                   MOV         R13,R2
    00000154 4208                   SHLL2       R2
    00000156 4200                   SHLL        R2
    00000158 7204                   ADD         #4,R2
    0000015A 6023                   MOV         R2,R0
    0000015C 045E                   MOV.L       @(R0,R5),R4
    0000015E 6563                   MOV         R6,R5
    00000160 D338                   MOV.L       L36+42,R3  ; _SIG_SEM
    00000162 430B                   JSR         @R3
    00000164 0009                   NOP
    00000166 6303                   MOV         R0,R3
    00000168 1F33                   MOV.L       R3,@(12,R15)
    0000016A              L27:
    0000016A D331                   MOV.L       L36+22,R3  ; _local_enable
    0000016C 430B                   JSR         @R3
    0000016E 0009                   NOP
    00000170 53F3                   MOV.L       @(12,R15),R3
    00000172 51F3                   MOV.L       @(12,R15),R1
    00000174 2138                   TST         R3,R1
    00000176 8905                   BT          L29
    00000178 53F3                   MOV.L       @(12,R15),R3
    0000017A 6733                   MOV         R3,R7
    0000017C D32D                   MOV.L       L36+26,R3  ; H'80000000
    0000017E 273B                   OR          R3,R7
    00000180 A002                   BRA         L13
    00000182 0009                   NOP
    00000184              L29:
    00000184 85F4                   MOV.W       @(8,R15),R0
    00000186 6703                   MOV         R0,R7
    00000188              L13:
    00000188 6073                   MOV         R7,R0
    0000018A 7F1C                   ADD         #28,R15
    0000018C 4F26                   LDS.L       @R15+,PR
    0000018E 6EF6                   MOV.L       @R15+,R14
    00000190 6DF6                   MOV.L       @R15+,R13
    00000192 6CF6                   MOV.L       @R15+,R12
    00000194 6BF6                   MOV.L       @R15+,R11
    00000196 6AF6                   MOV.L       @R15+,R10
    00000198 000B                   RTS
    0000019A 0009                   NOP
    0000019C              _init_dad_dpm_read:              ; function: init_dad_dpm_read
                                                           ; frame size=24
    0000019C 2FD6                   MOV.L       R13,@-R15
    0000019E 2FE6                   MOV.L       R14,@-R15
    000001A0 4F22                   STS.L       PR,@-R15
    000001A2 7FF4                   ADD         #-12,R15
    000001A4 6E43                   MOV         R4,R14
    000001A6 E432                   MOV         #50,R4     ; H'00000032
    000001A8 2F42                   MOV.L       R4,@R15
    000001AA E434                   MOV         #52,R4     ; H'00000034
    000001AC 62F3                   MOV         R15,R2
    000001AE 1241                   MOV.L       R4,@(4,R2)
    000001B0 E401                   MOV         #1,R4      ; H'00000001
    000001B2 ED01                   MOV         #1,R13     ; H'00000001
    000001B4 D51C                   MOV.L       L36+14,R5  ; __$dad_rx_sem
    000001B6 62E3                   MOV         R14,R2
    000001B8 4208                   SHLL2       R2
    000001BA 4200                   SHLL        R2
    000001BC 7204                   ADD         #4,R2
    000001BE 352C                   ADD         R2,R5
    000001C0 67F3                   MOV         R15,R7
    000001C2 66E3                   MOV         R14,R6
    000001C4 6263                   MOV         R6,R2
    000001C6 4208                   SHLL2       R2
    000001C8 6023                   MOV         R2,R0
    000001CA 067E                   MOV.L       @(R0,R7),R6
    000001CC 67D3                   MOV         R13,R7
    000001CE D31E                   MOV.L       L36+46,R3  ; _CRE_SEM
    000001D0 430B                   JSR         @R3
    000001D2 0009                   NOP
    000001D4 6203                   MOV         R0,R2
    000001D6 2228                   TST         R2,R2
    000001D8 8902                   BT          L32
    000001DA E2FF                   MOV         #-1,R2     ; H'FFFFFFFF
    000001DC A016                   BRA         L33
    000001DE 0009                   NOP
    000001E0              L32:
    000001E0 E400                   MOV         #0,R4      ; H'00000000
    000001E2 ED01                   MOV         #1,R13     ; H'00000001
    000001E4 D710                   MOV.L       L36+14,R7  ; __$dad_rx_sem
    000001E6 66E3                   MOV         R14,R6
    000001E8 6263                   MOV         R6,R2
    000001EA 4208                   SHLL2       R2
    000001EC 4200                   SHLL        R2
    000001EE 7204                   ADD         #4,R2
    000001F0 6023                   MOV         R2,R0
    000001F2 057E                   MOV.L       @(R0,R7),R5
    000001F4 E700                   MOV         #0,R7      ; H'00000000
    000001F6 66D3                   MOV         R13,R6
    000001F8 D30C                   MOV.L       L36+18,R3  ; _WAI_SEM
    000001FA 430B                   JSR         @R3
    000001FC 0009                   NOP
    000001FE 6203                   MOV         R0,R2
    00000200 2228                   TST         R2,R2
    00000202 8902                   BT          L35
    00000204 E2FF                   MOV         #-1,R2     ; H'FFFFFFFF
    00000206 A001                   BRA         L33
    00000208 0009                   NOP
    0000020A              L35:
    0000020A E200                   MOV         #0,R2      ; H'00000000
    0000020C              L33:
    0000020C 6023                   MOV         R2,R0
    0000020E 7F0C                   ADD         #12,R15
    00000210 4F26                   LDS.L       @R15+,PR
    00000212 6EF6                   MOV.L       @R15+,R14
    00000214 6DF6                   MOV.L       @R15+,R13
    00000216 000B                   RTS
    00000218 0009                   NOP
    0000021A              L36:
    0000021A 00000002               .RES.W      1
    0000021C <00000000>             .DATA.L     _dadc_ctxt_tbl
    00000220 <00000000>             .DATA.L     _local_disable
    00000224 <00000000>             .DATA.L     __$dad_rx_nest
    00000228 <00000000>             .DATA.L     __$dad_rx_sem
    0000022C <00000000>             .DATA.L     _WAI_SEM
    00000230 <00000000>             .DATA.L     _local_enable
    00000234 80000000               .DATA.L     H'80000000
    00000238 <00000000>             .DATA.L     _memcpy
    0000023C <00000000>             .DATA.L     _inverse_dadc
    00000240 <00000000>             .DATA.L     _verify_5561puti
    00000244 <00000000>             .DATA.L     _SIG_SEM
    00000248 <00000000>             .DATA.L     _CRE_SEM
D   00000000              __$dad_rx_sem:                   ; static: __$dad_rx_sem
    00000000 00000000               .DATA.L     H'00000000
    00000004 00                     .DATAB.B    12,0
    00000010              __$dad_rx_nest:                  ; static: __$dad_rx_nest
    00000010 00                     .DATA.B     H'00
    00000011 00                     .DATAB.B    1,0
SH SERIES C/C++ Compiler (Ver. checker(2003.03.17))                                              11-May-2005 16:20:01  PAGE    1


******** STATISTICS INFORMATION ********


********** ERROR INFORMATION ***********

NUMBER OF ERRORS:           0
NUMBER OF WARNINGS:         0
NUMBER OF INFORMATIONS:     0



******* SOURCE LINE INFORMATION ********

COMPILED SOURCE LINE:      160



******* SECTION SIZE INFORMATION *******

PROGRAM  SECTION (P):                               0000024C Byte(s)
CONSTANT SECTION (C):                               00000000 Byte(s)
DATA     SECTION (D):                               00000012 Byte(s)
BSS      SECTION (B):                               00000000 Byte(s)

TOTAL PROGRAM  SECTION: 0000024C Byte(s)
TOTAL CONSTANT SECTION: 00000000 Byte(s)
TOTAL DATA     SECTION: 00000012 Byte(s)
TOTAL BSS      SECTION: 00000000 Byte(s)

    TOTAL PROGRAM SIZE: 0000025E Byte(s)



********** LABEL INFORMATION ***********

NUMBER OF EXTERNAL REFERENCE SYMBOLS:            9
NUMBER OF EXTERNAL DEFINITION SYMBOLS:           2
NUMBER OF INTERNAL/EXTERNAL SYMBOLS:            25
*** COMMAND PARAMETER ***


  -cpu=sh3 -op=0 -en=big -me -debug -comment=nest -l -def=DEBUG,MAS_P5561,MAS_BIG_ENDIAN -i=P:\PRESTO2\SHINC,C:\usr\local\SH\7_1_1\include,P:\PRESTO2\NORTI_12\inc dadcrd.c 

