SH SERIES C/C++ Compiler (Ver. checker(2003.03.17))                                              10-Feb-2005 16:49:59  PAGE    1

************ OBJECT LISTING ************

FILE NAME: rzr117.c

SCT OFFSET   CODE       C LABEL     INSTRUCTION OPERAND    COMMENT

P   00000000              _rz_scan_rz600_tmg:              ; function: rz_scan_rz600_tmg
                                                           ; frame size=8
    00000000 2FE6                   MOV.L       R14,@-R15
    00000002 4F22                   STS.L       PR,@-R15
    00000004 6E43                   MOV         R4,R14
    00000006 64E3                   MOV         R14,R4
    00000008 7404                   ADD         #4,R4
    0000000A D341                   MOV.L       L12+2,R3   ; _htoc
    0000000C 430B                   JSR         @R3
    0000000E 0009                   NOP
    00000010 6203                   MOV         R0,R2
    00000012 632C                   EXTU.B      R2,R3
    00000014 D13F                   MOV.L       L12+6,R1   ; _rzr117s
    00000016 2130                   MOV.B       R3,@R1
    00000018 64E3                   MOV         R14,R4
    0000001A 7406                   ADD         #6,R4
    0000001C D33C                   MOV.L       L12+2,R3   ; _htoc
    0000001E 430B                   JSR         @R3
    00000020 0009                   NOP
    00000022 6203                   MOV         R0,R2
    00000024 632C                   EXTU.B      R2,R3
    00000026 D13C                   MOV.L       L12+10,R1  ; H'00000001+_rzr117s
    00000028 2130                   MOV.B       R3,@R1
    0000002A 64E3                   MOV         R14,R4
    0000002C 7408                   ADD         #8,R4
    0000002E D338                   MOV.L       L12+2,R3   ; _htoc
    00000030 430B                   JSR         @R3
    00000032 0009                   NOP
    00000034 6203                   MOV         R0,R2
    00000036 632C                   EXTU.B      R2,R3
    00000038 D138                   MOV.L       L12+14,R1  ; H'00000002+_rzr117s
    0000003A 2130                   MOV.B       R3,@R1
    0000003C 64E3                   MOV         R14,R4
    0000003E 740A                   ADD         #10,R4
    00000040 D333                   MOV.L       L12+2,R3   ; _htoc
    00000042 430B                   JSR         @R3
    00000044 0009                   NOP
    00000046 6203                   MOV         R0,R2
    00000048 632C                   EXTU.B      R2,R3
    0000004A D135                   MOV.L       L12+18,R1  ; H'00000003+_rzr117s
    0000004C 2130                   MOV.B       R3,@R1
    0000004E 64E3                   MOV         R14,R4
    00000050 740C                   ADD         #12,R4
    00000052 D32F                   MOV.L       L12+2,R3   ; _htoc
    00000054 430B                   JSR         @R3
    00000056 0009                   NOP
    00000058 6203                   MOV         R0,R2
    0000005A 632C                   EXTU.B      R2,R3
    0000005C D131                   MOV.L       L12+22,R1  ; H'00000004+_rzr117s
    0000005E 2130                   MOV.B       R3,@R1
    00000060 64E3                   MOV         R14,R4
    00000062 740E                   ADD         #14,R4
    00000064 D32A                   MOV.L       L12+2,R3   ; _htoc
    00000066 430B                   JSR         @R3
    00000068 0009                   NOP
    0000006A 6203                   MOV         R0,R2
    0000006C 632C                   EXTU.B      R2,R3
    0000006E D12E                   MOV.L       L12+26,R1  ; H'00000005+_rzr117s
    00000070 2130                   MOV.B       R3,@R1
    00000072 64E3                   MOV         R14,R4
    00000074 7410                   ADD         #16,R4
    00000076 D326                   MOV.L       L12+2,R3   ; _htoc
    00000078 430B                   JSR         @R3
    0000007A 0009                   NOP
    0000007C 6203                   MOV         R0,R2
    0000007E 632C                   EXTU.B      R2,R3
    00000080 D12A                   MOV.L       L12+30,R1  ; H'00000006+_rzr117s
    00000082 2130                   MOV.B       R3,@R1
    00000084 64E3                   MOV         R14,R4
    00000086 7412                   ADD         #18,R4
    00000088 D321                   MOV.L       L12+2,R3   ; _htoc
    0000008A 430B                   JSR         @R3
    0000008C 0009                   NOP
    0000008E 6203                   MOV         R0,R2
    00000090 632C                   EXTU.B      R2,R3
    00000092 D127                   MOV.L       L12+34,R1  ; H'00000007+_rzr117s
    00000094 2130                   MOV.B       R3,@R1
    00000096 64E3                   MOV         R14,R4
    00000098 7414                   ADD         #20,R4
    0000009A D31D                   MOV.L       L12+2,R3   ; _htoc
    0000009C 430B                   JSR         @R3
    0000009E 0009                   NOP
    000000A0 6203                   MOV         R0,R2
    000000A2 632C                   EXTU.B      R2,R3
    000000A4 D123                   MOV.L       L12+38,R1  ; H'00000008+_rzr117s
    000000A6 2130                   MOV.B       R3,@R1
    000000A8 64E3                   MOV         R14,R4
    000000AA 7416                   ADD         #22,R4
    000000AC D318                   MOV.L       L12+2,R3   ; _htoc
    000000AE 430B                   JSR         @R3
    000000B0 0009                   NOP
    000000B2 6203                   MOV         R0,R2
    000000B4 632C                   EXTU.B      R2,R3
    000000B6 D120                   MOV.L       L12+42,R1  ; H'00000009+_rzr117s
    000000B8 2130                   MOV.B       R3,@R1
    000000BA 64E3                   MOV         R14,R4
    000000BC 7418                   ADD         #24,R4
    000000BE D314                   MOV.L       L12+2,R3   ; _htoc
    000000C0 430B                   JSR         @R3
    000000C2 0009                   NOP
    000000C4 6203                   MOV         R0,R2
    000000C6 632C                   EXTU.B      R2,R3
    000000C8 D11C                   MOV.L       L12+46,R1  ; H'0000000A+_rzr117s
    000000CA 2130                   MOV.B       R3,@R1
    000000CC 64E3                   MOV         R14,R4
    000000CE 741A                   ADD         #26,R4
    000000D0 D30F                   MOV.L       L12+2,R3   ; _htoc
    000000D2 430B                   JSR         @R3
    000000D4 0009                   NOP
    000000D6 6203                   MOV         R0,R2
    000000D8 632C                   EXTU.B      R2,R3
    000000DA D119                   MOV.L       L12+50,R1  ; H'0000000B+_rzr117s
    000000DC 2130                   MOV.B       R3,@R1
    000000DE 64E3                   MOV         R14,R4
    000000E0 741C                   ADD         #28,R4
    000000E2 D30B                   MOV.L       L12+2,R3   ; _htoc
    000000E4 430B                   JSR         @R3
    000000E6 0009                   NOP
    000000E8 6203                   MOV         R0,R2
    000000EA 632C                   EXTU.B      R2,R3
    000000EC D115                   MOV.L       L12+54,R1  ; H'0000000C+_rzr117s
    000000EE 2130                   MOV.B       R3,@R1
    000000F0 7E1E                   ADD         #30,R14
    000000F2 64E3                   MOV         R14,R4
    000000F4 D306                   MOV.L       L12+2,R3   ; _htoc
    000000F6 430B                   JSR         @R3
    000000F8 0009                   NOP
    000000FA 6203                   MOV         R0,R2
    000000FC 632C                   EXTU.B      R2,R3
    000000FE D112                   MOV.L       L12+58,R1  ; H'0000000D+_rzr117s
    00000100 2130                   MOV.B       R3,@R1
    00000102 E200                   MOV         #0,R2      ; H'00000000
    00000104 6023                   MOV         R2,R0
    00000106 4F26                   LDS.L       @R15+,PR
    00000108 6EF6                   MOV.L       @R15+,R14
    0000010A 000B                   RTS
    0000010C 0009                   NOP
    0000010E              L12:
    0000010E 00000002               .RES.W      1
    00000110 <00000000>             .DATA.L     _htoc
    00000114 <00000000>             .DATA.L     _rzr117s
    00000118 <00000001>             .DATA.L     H'00000001+_rzr117s
    0000011C <00000002>             .DATA.L     H'00000002+_rzr117s
    00000120 <00000003>             .DATA.L     H'00000003+_rzr117s
    00000124 <00000004>             .DATA.L     H'00000004+_rzr117s
    00000128 <00000005>             .DATA.L     H'00000005+_rzr117s
    0000012C <00000006>             .DATA.L     H'00000006+_rzr117s
    00000130 <00000007>             .DATA.L     H'00000007+_rzr117s
    00000134 <00000008>             .DATA.L     H'00000008+_rzr117s
    00000138 <00000009>             .DATA.L     H'00000009+_rzr117s
    0000013C <0000000A>             .DATA.L     H'0000000A+_rzr117s
    00000140 <0000000B>             .DATA.L     H'0000000B+_rzr117s
    00000144 <0000000C>             .DATA.L     H'0000000C+_rzr117s
    00000148 <0000000D>             .DATA.L     H'0000000D+_rzr117s
B   00000000              _rzr117s:                        ; static: rzr117s
    00000000 00000001               .RES.B      14
SH SERIES C/C++ Compiler (Ver. checker(2003.03.17))                                              10-Feb-2005 16:49:59  PAGE    1


******** STATISTICS INFORMATION ********


********** ERROR INFORMATION ***********

NUMBER OF ERRORS:           0
NUMBER OF WARNINGS:         0
NUMBER OF INFORMATIONS:     0



******* SOURCE LINE INFORMATION ********

COMPILED SOURCE LINE:       68



******* SECTION SIZE INFORMATION *******

PROGRAM  SECTION (P):                               0000014C Byte(s)
CONSTANT SECTION (C):                               00000000 Byte(s)
DATA     SECTION (D):                               00000000 Byte(s)
BSS      SECTION (B):                               0000000E Byte(s)

TOTAL PROGRAM  SECTION: 0000014C Byte(s)
TOTAL CONSTANT SECTION: 00000000 Byte(s)
TOTAL DATA     SECTION: 00000000 Byte(s)
TOTAL BSS      SECTION: 0000000E Byte(s)

    TOTAL PROGRAM SIZE: 0000015A Byte(s)



********** LABEL INFORMATION ***********

NUMBER OF EXTERNAL REFERENCE SYMBOLS:            1
NUMBER OF EXTERNAL DEFINITION SYMBOLS:           2
NUMBER OF INTERNAL/EXTERNAL SYMBOLS:             4
*** COMMAND PARAMETER ***


  -cpu=sh3 -op=0 -en=big -me -debug -comment=nest -l -def=DEBUG -i=P:\PRESTO2\SHINC,C:\usr\local\SH\7_1_1\include,P:\PRESTO2\NORTI_12\inc rzr117.c 

