SH SERIES C/C++ Compiler (Ver. checker(2003.03.17))                                              10-Nov-2011 18:53:55  PAGE    1

************ OBJECT LISTING ************

FILE NAME: dadcwr.c

SCT OFFSET   CODE       C LABEL     INSTRUCTION OPERAND    COMMENT

P   00000000              _dad_dpm_write:                  ; function: dad_dpm_write
                                                           ; frame size=76
    00000000 2F96                   MOV.L       R9,@-R15
    00000002 2FA6                   MOV.L       R10,@-R15
    00000004 2FB6                   MOV.L       R11,@-R15
    00000006 2FC6                   MOV.L       R12,@-R15
    00000008 2FD6                   MOV.L       R13,@-R15
    0000000A 2FE6                   MOV.L       R14,@-R15
    0000000C 4F22                   STS.L       PR,@-R15
    0000000E 7FD0                   ADD         #-48,R15
    00000010 6963                   MOV         R6,R9
    00000012 6A53                   MOV         R5,R10
    00000014 6D43                   MOV         R4,R13
    00000016 6B73                   MOV         R7,R11
    00000018 E700                   MOV         #0,R7      ; H'00000000
    0000001A 1F73                   MOV.L       R7,@(12,R15)
    0000001C D6C4                   MOV.L       L48,R6     ; _dadc_ctxt_tbl
    0000001E 65D3                   MOV         R13,R5
    00000020 6253                   MOV         R5,R2
    00000022 E305                   MOV         #5,R3      ; H'00000005
    00000024 423D                   SHLD        R3,R2
    00000026 362C                   ADD         R2,R6
    00000028 6C63                   MOV         R6,R12
    0000002A 6EC2                   MOV.L       @R12,R14
    0000002C 52C4                   MOV.L       @(16,R12),R2
    0000002E 3E2C                   ADD         R2,R14
    00000030 6BBF                   EXTS.W      R11,R11
    00000032 62B3                   MOV         R11,R2
    00000034 7202                   ADD         #2,R2
    00000036 56C5                   MOV.L       @(20,R12),R6
    00000038 3266                   CMP/HI      R6,R2
    0000003A 8B02                   BF          L12
    0000003C E2FF                   MOV         #-1,R2     ; H'FFFFFFFF
    0000003E A1AB                   BRA         L13
    00000040 0009                   NOP
    00000042              L12:
    00000042 D3BC                   MOV.L       L48+4,R3   ; _local_disable
    00000044 430B                   JSR         @R3
    00000046 0009                   NOP
    00000048 D6BB                   MOV.L       L48+8,R6   ; __$dad_tx_nest
    0000004A 60D3                   MOV         R13,R0
    0000004C 026C                   MOV.B       @(R0,R6),R2
    0000004E 662C                   EXTU.B      R2,R6
    00000050 666C                   EXTU.B      R6,R6
    00000052 6263                   MOV         R6,R2
    00000054 7201                   ADD         #1,R2
    00000056 D6B8                   MOV.L       L48+8,R6   ; __$dad_tx_nest
    00000058 60D3                   MOV         R13,R0
    0000005A 0624                   MOV.B       R2,@(R0,R6)
    0000005C D6B6                   MOV.L       L48+8,R6   ; __$dad_tx_nest
    0000005E 60D3                   MOV         R13,R0
    00000060 026C                   MOV.B       @(R0,R6),R2
    00000062 652C                   EXTU.B      R2,R5
    00000064 655C                   EXTU.B      R5,R5
    00000066 6653                   MOV         R5,R6
    00000068 E301                   MOV         #1,R3      ; H'00000001
    0000006A 3637                   CMP/GT      R3,R6
    0000006C 8B11                   BF          L15
    0000006E E200                   MOV         #0,R2      ; H'00000000
    00000070 E301                   MOV         #1,R3      ; H'00000001
    00000072 1F3A                   MOV.L       R3,@(40,R15)
    00000074 D4B1                   MOV.L       L48+12,R4  ; __$dad_tx_sem
    00000076 66D3                   MOV         R13,R6
    00000078 4608                   SHLL2       R6
    0000007A 4600                   SHLL        R6
    0000007C 7604                   ADD         #4,R6
    0000007E 6063                   MOV         R6,R0
    00000080 054E                   MOV.L       @(R0,R4),R5
    00000082 E700                   MOV         #0,R7      ; H'00000000
    00000084 6423                   MOV         R2,R4
    00000086 56FA                   MOV.L       @(40,R15),R6
    00000088 D3AD                   MOV.L       L48+16,R3  ; _WAI_SEM
    0000008A 430B                   JSR         @R3
    0000008C 0009                   NOP
    0000008E 6703                   MOV         R0,R7
    00000090 1F73                   MOV.L       R7,@(12,R15)
    00000092              L15:
    00000092 D3AC                   MOV.L       L48+20,R3  ; _local_enable
    00000094 430B                   JSR         @R3
    00000096 0009                   NOP
    00000098 57F3                   MOV.L       @(12,R15),R7
    0000009A 2778                   TST         R7,R7
    0000009C 8904                   BT          L17
    0000009E 6273                   MOV         R7,R2
    000000A0 D3A9                   MOV.L       L48+24,R3  ; H'80000000
    000000A2 223B                   OR          R3,R2
    000000A4 A178                   BRA         L13
    000000A6 0009                   NOP
    000000A8              L17:
    000000A8 E300                   MOV         #0,R3      ; H'00000000
    000000AA 1F34                   MOV.L       R3,@(16,R15)
    000000AC 64C2                   MOV.L       @R12,R4
    000000AE 52C2                   MOV.L       @(8,R12),R2
    000000B0 342C                   ADD         R2,R4
    000000B2 D3A6                   MOV.L       L48+28,R3  ; _verify_geti
    000000B4 430B                   JSR         @R3
    000000B6 0009                   NOP
    000000B8 6203                   MOV         R0,R2
    000000BA 2228                   TST         R2,R2
    000000BC 8929                   BT          L18
    000000BE              L19:
    000000BE D4A4                   MOV.L       L48+32,R4  ; _dad_poll_time
    000000C0 D3A4                   MOV.L       L48+36,R3  ; _HLT_TSK
    000000C2 430B                   JSR         @R3
    000000C4 0009                   NOP
    000000C6 6703                   MOV         R0,R7
    000000C8 1F73                   MOV.L       R7,@(12,R15)
    000000CA 6673                   MOV         R7,R6
    000000CC 2668                   TST         R6,R6
    000000CE 8904                   BT          L21
    000000D0 D39D                   MOV.L       L48+24,R3  ; H'80000000
    000000D2 273B                   OR          R3,R7
    000000D4 6273                   MOV         R7,R2
    000000D6 A15F                   BRA         L13
    000000D8 0009                   NOP
    000000DA              L21:
    000000DA 53F4                   MOV.L       @(16,R15),R3
    000000DC 7301                   ADD         #1,R3
    000000DE 1F34                   MOV.L       R3,@(16,R15)
    000000E0 6633                   MOV         R3,R6
    000000E2 1F69                   MOV.L       R6,@(36,R15)
    000000E4 D29C                   MOV.L       L48+40,R2  ; __divls
    000000E6 D39A                   MOV.L       L48+32,R3  ; _dad_poll_time
    000000E8 6332                   MOV.L       @R3,R3
    000000EA 1F2B                   MOV.L       R2,@(44,R15)
    000000EC D29B                   MOV.L       L48+44,R2  ; _dad_tmout
    000000EE 6122                   MOV.L       @R2,R1
    000000F0 52FB                   MOV.L       @(44,R15),R2
    000000F2 6033                   MOV         R3,R0
    000000F4 420B                   JSR         @R2
    000000F6 0009                   NOP
    000000F8 6203                   MOV         R0,R2
    000000FA 56F9                   MOV.L       @(36,R15),R6
    000000FC 3627                   CMP/GT      R2,R6
    000000FE 0229                   MOVT        R2
    00000100 64C2                   MOV.L       @R12,R4
    00000102 52C2                   MOV.L       @(8,R12),R2
    00000104 342C                   ADD         R2,R4
    00000106 D391                   MOV.L       L48+28,R3  ; _verify_geti
    00000108 430B                   JSR         @R3
    0000010A 0009                   NOP
    0000010C 6203                   MOV         R0,R2
    0000010E 2228                   TST         R2,R2
    00000110 8BD5                   BF          L19
    00000112              L18:
    00000112 66B3                   MOV         R11,R6
    00000114 7604                   ADD         #4,R6
    00000116 6363                   MOV         R6,R3
    00000118 6033                   MOV         R3,R0
    0000011A 81F4                   MOV.W       R0,@(8,R15)
    0000011C 633F                   EXTS.W      R3,R3
    0000011E 6033                   MOV         R3,R0
    00000120 81FE                   MOV.W       R0,@(28,R15)
    00000122 633F                   EXTS.W      R3,R3
    00000124 633D                   EXTU.W      R3,R3
    00000126 6633                   MOV         R3,R6
    00000128 6563                   MOV         R6,R5
    0000012A 93D3                   MOV.W       L46,R3     ; H'00FF
    0000012C 2539                   AND         R3,R5
    0000012E 4518                   SHLL8       R5
    00000130 85FE                   MOV.W       @(28,R15),R0
    00000132 6303                   MOV         R0,R3
    00000134 633D                   EXTU.W      R3,R3
    00000136 6433                   MOV         R3,R4
    00000138 6653                   MOV         R5,R6
    0000013A D389                   MOV.L       L48+48,R3  ; H'0000FF00
    0000013C 2439                   AND         R3,R4
    0000013E E3F8                   MOV         #-8,R3     ; H'FFFFFFF8
    00000140 443C                   SHAD        R3,R4
    00000142 264B                   OR          R4,R6
    00000144 6363                   MOV         R6,R3
    00000146 6033                   MOV         R3,R0
    00000148 81FE                   MOV.W       R0,@(28,R15)
    0000014A 65F3                   MOV         R15,R5
    0000014C 751C                   ADD         #28,R5
    0000014E E602                   MOV         #2,R6      ; H'00000002
    00000150 64E3                   MOV         R14,R4
    00000152 D384                   MOV.L       L48+52,R3  ; _memcpy
    00000154 430B                   JSR         @R3
    00000156 0009                   NOP
    00000158 52C4                   MOV.L       @(16,R12),R2
    0000015A 85F4                   MOV.W       @(8,R15),R0
    0000015C 6303                   MOV         R0,R3
    0000015E 633D                   EXTU.W      R3,R3
    00000160 323C                   ADD         R3,R2
    00000162 6323                   MOV         R2,R3
    00000164 6033                   MOV         R3,R0
    00000166 81FE                   MOV.W       R0,@(28,R15)
    00000168 633F                   EXTS.W      R3,R3
    0000016A 633D                   EXTU.W      R3,R3
    0000016C 6633                   MOV         R3,R6
    0000016E 6563                   MOV         R6,R5
    00000170 93B0                   MOV.W       L46,R3     ; H'00FF
    00000172 2539                   AND         R3,R5
    00000174 4518                   SHLL8       R5
    00000176 85FE                   MOV.W       @(28,R15),R0
    00000178 6303                   MOV         R0,R3
    0000017A 633D                   EXTU.W      R3,R3
    0000017C 6433                   MOV         R3,R4
    0000017E 6653                   MOV         R5,R6
    00000180 D377                   MOV.L       L48+48,R3  ; H'0000FF00
    00000182 2439                   AND         R3,R4
    00000184 E3F8                   MOV         #-8,R3     ; H'FFFFFFF8
    00000186 443C                   SHAD        R3,R4
    00000188 264B                   OR          R4,R6
    0000018A 6363                   MOV         R6,R3
    0000018C 6033                   MOV         R3,R0
    0000018E 81FE                   MOV.W       R0,@(28,R15)
    00000190 64E3                   MOV         R14,R4
    00000192 7402                   ADD         #2,R4
    00000194 65F3                   MOV         R15,R5
    00000196 751C                   ADD         #28,R5
    00000198 E602                   MOV         #2,R6      ; H'00000002
    0000019A D372                   MOV.L       L48+52,R3  ; _memcpy
    0000019C 430B                   JSR         @R3
    0000019E 0009                   NOP
    000001A0 6BBF                   EXTS.W      R11,R11
    000001A2 62B3                   MOV         R11,R2
    000001A4 64E3                   MOV         R14,R4
    000001A6 7404                   ADD         #4,R4
    000001A8 6593                   MOV         R9,R5
    000001AA 6623                   MOV         R2,R6
    000001AC D36D                   MOV.L       L48+52,R3  ; _memcpy
    000001AE 430B                   JSR         @R3
    000001B0 0009                   NOP
    000001B2 E300                   MOV         #0,R3      ; H'00000000
    000001B4 6033                   MOV         R3,R0
    000001B6 81FE                   MOV.W       R0,@(28,R15)
    000001B8 633F                   EXTS.W      R3,R3
    000001BA 633D                   EXTU.W      R3,R3
    000001BC 6633                   MOV         R3,R6
    000001BE 6563                   MOV         R6,R5
    000001C0 9388                   MOV.W       L46,R3     ; H'00FF
    000001C2 2539                   AND         R3,R5
    000001C4 4518                   SHLL8       R5
    000001C6 85FE                   MOV.W       @(28,R15),R0
    000001C8 6303                   MOV         R0,R3
    000001CA 633D                   EXTU.W      R3,R3
    000001CC 6433                   MOV         R3,R4
    000001CE 6653                   MOV         R5,R6
    000001D0 D363                   MOV.L       L48+48,R3  ; H'0000FF00
    000001D2 2439                   AND         R3,R4
    000001D4 E3F8                   MOV         #-8,R3     ; H'FFFFFFF8
    000001D6 443C                   SHAD        R3,R4
    000001D8 264B                   OR          R4,R6
    000001DA 6363                   MOV         R6,R3
    000001DC 6033                   MOV         R3,R0
    000001DE 81FE                   MOV.W       R0,@(28,R15)
    000001E0 64E3                   MOV         R14,R4
    000001E2 85F4                   MOV.W       @(8,R15),R0
    000001E4 6303                   MOV         R0,R3
    000001E6 633D                   EXTU.W      R3,R3
    000001E8 343C                   ADD         R3,R4
    000001EA 65F3                   MOV         R15,R5
    000001EC 751C                   ADD         #28,R5
    000001EE E602                   MOV         #2,R6      ; H'00000002
    000001F0 D35C                   MOV.L       L48+52,R3  ; _memcpy
    000001F2 430B                   JSR         @R3
    000001F4 0009                   NOP
    000001F6 E301                   MOV         #1,R3      ; H'00000001
    000001F8 6033                   MOV         R3,R0
    000001FA 81FE                   MOV.W       R0,@(28,R15)
    000001FC 633F                   EXTS.W      R3,R3
    000001FE 633D                   EXTU.W      R3,R3
    00000200 6633                   MOV         R3,R6
    00000202 6563                   MOV         R6,R5
    00000204 9366                   MOV.W       L46,R3     ; H'00FF
    00000206 2539                   AND         R3,R5
    00000208 4518                   SHLL8       R5
    0000020A 85FE                   MOV.W       @(28,R15),R0
    0000020C 6303                   MOV         R0,R3
    0000020E 633D                   EXTU.W      R3,R3
    00000210 6433                   MOV         R3,R4
    00000212 6653                   MOV         R5,R6
    00000214 D352                   MOV.L       L48+48,R3  ; H'0000FF00
    00000216 2439                   AND         R3,R4
    00000218 E3F8                   MOV         #-8,R3     ; H'FFFFFFF8
    0000021A 443C                   SHAD        R3,R4
    0000021C 264B                   OR          R4,R6
    0000021E 6363                   MOV         R6,R3
    00000220 6033                   MOV         R3,R0
    00000222 81FE                   MOV.W       R0,@(28,R15)
    00000224              L22:
    00000224 65C2                   MOV.L       @R12,R5
    00000226 52C2                   MOV.L       @(8,R12),R2
    00000228 352C                   ADD         R2,R5
    0000022A 85FE                   MOV.W       @(28,R15),R0
    0000022C 6303                   MOV         R0,R3
    0000022E 643D                   EXTU.W      R3,R4
    00000230 D34D                   MOV.L       L48+56,R3  ; _verify_puti
    00000232 430B                   JSR         @R3
    00000234 0009                   NOP
    00000236 6203                   MOV         R0,R2
    00000238 2228                   TST         R2,R2
    0000023A 8BF3                   BF          L22
    0000023C 2AA8                   TST         R10,R10
    0000023E 8B02                   BF          L25
    00000240 E200                   MOV         #0,R2      ; H'00000000
    00000242 A058                   BRA         L26
    00000244 0009                   NOP
    00000246              L25:
    00000246 E301                   MOV         #1,R3      ; H'00000001
    00000248 1F34                   MOV.L       R3,@(16,R15)
    0000024A              L27:
    0000024A 64E3                   MOV         R14,R4
    0000024C 85F4                   MOV.W       @(8,R15),R0
    0000024E 6303                   MOV         R0,R3
    00000250 633D                   EXTU.W      R3,R3
    00000252 343C                   ADD         R3,R4
    00000254 D33D                   MOV.L       L48+28,R3  ; _verify_geti
    00000256 430B                   JSR         @R3
    00000258 0009                   NOP
    0000025A 6203                   MOV         R0,R2
    0000025C 6623                   MOV         R2,R6
    0000025E 6063                   MOV         R6,R0
    00000260 88FF                   CMP/EQ      #-1,R0
    00000262 8B0C                   BF          L28
    00000264              L29:
    00000264 64E3                   MOV         R14,R4
    00000266 85F4                   MOV.W       @(8,R15),R0
    00000268 6303                   MOV         R0,R3
    0000026A 633D                   EXTU.W      R3,R3
    0000026C 343C                   ADD         R3,R4
    0000026E D337                   MOV.L       L48+28,R3  ; _verify_geti
    00000270 430B                   JSR         @R3
    00000272 0009                   NOP
    00000274 6203                   MOV         R0,R2
    00000276 6623                   MOV         R2,R6
    00000278 6063                   MOV         R6,R0
    0000027A 88FF                   CMP/EQ      #-1,R0
    0000027C 89F2                   BT          L29
    0000027E              L28:
    0000027E 53F4                   MOV.L       @(16,R15),R3
    00000280 7301                   ADD         #1,R3
    00000282 1F34                   MOV.L       R3,@(16,R15)
    00000284 6533                   MOV         R3,R5
    00000286 2558                   TST         R5,R5
    00000288 0629                   MOVT        R6
    0000028A 2228                   TST         R2,R2
    0000028C 89DD                   BT          L27
    0000028E 6623                   MOV         R2,R6
    00000290 9320                   MOV.W       L46,R3     ; H'00FF
    00000292 666F                   EXTS.W      R6,R6
    00000294 6463                   MOV         R6,R4
    00000296 2439                   AND         R3,R4
    00000298 4418                   SHLL8       R4
    0000029A D331                   MOV.L       L48+48,R3  ; H'0000FF00
    0000029C 622F                   EXTS.W      R2,R2
    0000029E 6623                   MOV         R2,R6
    000002A0 2639                   AND         R3,R6
    000002A2 666D                   EXTU.W      R6,R6
    000002A4 E3F8                   MOV         #-8,R3     ; H'FFFFFFF8
    000002A6 463C                   SHAD        R3,R6
    000002A8 246B                   OR          R6,R4
    000002AA 6243                   MOV         R4,R2
    000002AC 622F                   EXTS.W      R2,R2
    000002AE 4215                   CMP/PL      R2
    000002B0 8B05                   BF          L32
    000002B2 E303                   MOV         #3,R3      ; H'00000003
    000002B4 3237                   CMP/GT      R3,R2
    000002B6 8902                   BT          L32
    000002B8 2A21                   MOV.W       R2,@R10
    000002BA A01C                   BRA         L26
    000002BC 0009                   NOP
    000002BE              L32:
    000002BE 6623                   MOV         R2,R6
    000002C0 76FE                   ADD         #-2,R6
    000002C2 6263                   MOV         R6,R2
    000002C4 6623                   MOV         R2,R6
    000002C6 666F                   EXTS.W      R6,R6
    000002C8 E302                   MOV         #2,R3      ; H'00000002
    000002CA 3633                   CMP/GE      R3,R6
    000002CC 8903                   BT          L35
    000002CE EBFF                   MOV         #-1,R11    ; H'FFFFFFFF
    000002D0 A011                   BRA         L26
    000002D2 0009                   NOP
    000002D4              L46:
    000002D4 00FF                   .DATA.W     H'00FF
    000002D6              L35:
    000002D6 622F                   EXTS.W      R2,R2
    000002D8 6323                   MOV         R2,R3
    000002DA 1F3A                   MOV.L       R3,@(40,R15)
    000002DC 65E3                   MOV         R14,R5
    000002DE 85F4                   MOV.W       @(8,R15),R0
    000002E0 6303                   MOV         R0,R3
    000002E2 6233                   MOV         R3,R2
    000002E4 622D                   EXTU.W      R2,R2
    000002E6 6623                   MOV         R2,R6
    000002E8 7602                   ADD         #2,R6
    000002EA 356C                   ADD         R6,R5
    000002EC 64A3                   MOV         R10,R4
    000002EE 56FA                   MOV.L       @(40,R15),R6
    000002F0 D31C                   MOV.L       L48+52,R3  ; _memcpy
    000002F2 430B                   JSR         @R3
    000002F4 0009                   NOP
    000002F6              L26:
    000002F6 D30F                   MOV.L       L48+4,R3   ; _local_disable
    000002F8 430B                   JSR         @R3
    000002FA 0009                   NOP
    000002FC D60E                   MOV.L       L48+8,R6   ; __$dad_tx_nest
    000002FE 60D3                   MOV         R13,R0
    00000300 026C                   MOV.B       @(R0,R6),R2
    00000302 662C                   EXTU.B      R2,R6
    00000304 666C                   EXTU.B      R6,R6
    00000306 6263                   MOV         R6,R2
    00000308 72FF                   ADD         #-1,R2
    0000030A D60B                   MOV.L       L48+8,R6   ; __$dad_tx_nest
    0000030C 60D3                   MOV         R13,R0
    0000030E 0624                   MOV.B       R2,@(R0,R6)
    00000310 D609                   MOV.L       L48+8,R6   ; __$dad_tx_nest
    00000312 60D3                   MOV         R13,R0
    00000314 026C                   MOV.B       @(R0,R6),R2
    00000316 652C                   EXTU.B      R2,R5
    00000318 655C                   EXTU.B      R5,R5
    0000031A E301                   MOV         #1,R3      ; H'00000001
    0000031C 3533                   CMP/GE      R3,R5
    0000031E 8B2E                   BF          L37
    00000320 E201                   MOV         #1,R2      ; H'00000001
    00000322 D506                   MOV.L       L48+12,R5  ; __$dad_tx_sem
    00000324 66D3                   MOV         R13,R6
    00000326 4608                   SHLL2       R6
    00000328 4600                   SHLL        R6
    0000032A 7604                   ADD         #4,R6
    0000032C A01E                   BRA         L47
    0000032E 0009                   NOP
    00000330              L48:
    00000330 <00000000>             .DATA.L     _dadc_ctxt_tbl
    00000334 <00000000>             .DATA.L     _local_disable
    00000338 <00000000>             .DATA.L     __$dad_tx_nest
    0000033C <00000000>             .DATA.L     __$dad_tx_sem
    00000340 <00000000>             .DATA.L     _WAI_SEM
    00000344 <00000000>             .DATA.L     _local_enable
    00000348 80000000               .DATA.L     H'80000000
    0000034C <00000000>             .DATA.L     _verify_geti
    00000350 <00000000>             .DATA.L     _dad_poll_time
    00000354 <00000000>             .DATA.L     _HLT_TSK
    00000358 <00000000>             .DATA.L     __divls
    0000035C <00000000>             .DATA.L     _dad_tmout
    00000360 0000FF00               .DATA.L     H'0000FF00
    00000364 <00000000>             .DATA.L     _memcpy
    00000368 <00000000>             .DATA.L     _verify_puti
    0000036C              L47:
    0000036C 6063                   MOV         R6,R0
    0000036E 075E                   MOV.L       @(R0,R5),R7
    00000370 6523                   MOV         R2,R5
    00000372 6473                   MOV         R7,R4
    00000374 D331                   MOV.L       L49+2,R3   ; _SIG_SEM
    00000376 430B                   JSR         @R3
    00000378 0009                   NOP
    0000037A 6703                   MOV         R0,R7
    0000037C 1F73                   MOV.L       R7,@(12,R15)
    0000037E              L37:
    0000037E D330                   MOV.L       L49+6,R3   ; _local_enable
    00000380 430B                   JSR         @R3
    00000382 0009                   NOP
    00000384 57F3                   MOV.L       @(12,R15),R7
    00000386 2778                   TST         R7,R7
    00000388 8904                   BT          L39
    0000038A 6273                   MOV         R7,R2
    0000038C D32D                   MOV.L       L49+10,R3  ; H'80000000
    0000038E 223B                   OR          R3,R2
    00000390 A002                   BRA         L13
    00000392 0009                   NOP
    00000394              L39:
    00000394 6BBF                   EXTS.W      R11,R11
    00000396 62B3                   MOV         R11,R2
    00000398              L13:
    00000398 6023                   MOV         R2,R0
    0000039A 7F30                   ADD         #48,R15
    0000039C 4F26                   LDS.L       @R15+,PR
    0000039E 6EF6                   MOV.L       @R15+,R14
    000003A0 6DF6                   MOV.L       @R15+,R13
    000003A2 6CF6                   MOV.L       @R15+,R12
    000003A4 6BF6                   MOV.L       @R15+,R11
    000003A6 6AF6                   MOV.L       @R15+,R10
    000003A8 69F6                   MOV.L       @R15+,R9
    000003AA 000B                   RTS
    000003AC 0009                   NOP
    000003AE              _init_dad_dpm_write:             ; function: init_dad_dpm_write
                                                           ; frame size=32
    000003AE 2FD6                   MOV.L       R13,@-R15
    000003B0 2FE6                   MOV.L       R14,@-R15
    000003B2 4F22                   STS.L       PR,@-R15
    000003B4 7FEC                   ADD         #-20,R15
    000003B6 6E43                   MOV         R4,R14
    000003B8 E431                   MOV         #49,R4     ; H'00000031
    000003BA 2F42                   MOV.L       R4,@R15
    000003BC E433                   MOV         #51,R4     ; H'00000033
    000003BE 62F3                   MOV         R15,R2
    000003C0 1241                   MOV.L       R4,@(4,R2)
    000003C2 E44E                   MOV         #78,R4     ; H'0000004E
    000003C4 62F3                   MOV         R15,R2
    000003C6 1242                   MOV.L       R4,@(8,R2)
    000003C8 E450                   MOV         #80,R4     ; H'00000050
    000003CA 62F3                   MOV         R15,R2
    000003CC 1243                   MOV.L       R4,@(12,R2)
    000003CE E401                   MOV         #1,R4      ; H'00000001
    000003D0 ED01                   MOV         #1,R13     ; H'00000001
    000003D2 D51D                   MOV.L       L49+14,R5  ; __$dad_tx_sem
    000003D4 66E3                   MOV         R14,R6
    000003D6 6263                   MOV         R6,R2
    000003D8 4208                   SHLL2       R2
    000003DA 4200                   SHLL        R2
    000003DC 7204                   ADD         #4,R2
    000003DE 352C                   ADD         R2,R5
    000003E0 67F3                   MOV         R15,R7
    000003E2 66E3                   MOV         R14,R6
    000003E4 6263                   MOV         R6,R2
    000003E6 4208                   SHLL2       R2
    000003E8 6023                   MOV         R2,R0
    000003EA 067E                   MOV.L       @(R0,R7),R6
    000003EC 67D3                   MOV         R13,R7
    000003EE D317                   MOV.L       L49+18,R3  ; _CRE_SEM
    000003F0 430B                   JSR         @R3
    000003F2 0009                   NOP
    000003F4 6203                   MOV         R0,R2
    000003F6 2228                   TST         R2,R2
    000003F8 8902                   BT          L42
    000003FA E2FF                   MOV         #-1,R2     ; H'FFFFFFFF
    000003FC A016                   BRA         L43
    000003FE 0009                   NOP
    00000400              L42:
    00000400 E400                   MOV         #0,R4      ; H'00000000
    00000402 ED01                   MOV         #1,R13     ; H'00000001
    00000404 D510                   MOV.L       L49+14,R5  ; __$dad_tx_sem
    00000406 62E3                   MOV         R14,R2
    00000408 4208                   SHLL2       R2
    0000040A 4200                   SHLL        R2
    0000040C 7204                   ADD         #4,R2
    0000040E 6023                   MOV         R2,R0
    00000410 065E                   MOV.L       @(R0,R5),R6
    00000412 6563                   MOV         R6,R5
    00000414 E700                   MOV         #0,R7      ; H'00000000
    00000416 66D3                   MOV         R13,R6
    00000418 D30D                   MOV.L       L49+22,R3  ; _WAI_SEM
    0000041A 430B                   JSR         @R3
    0000041C 0009                   NOP
    0000041E 6203                   MOV         R0,R2
    00000420 2228                   TST         R2,R2
    00000422 8902                   BT          L45
    00000424 E2FF                   MOV         #-1,R2     ; H'FFFFFFFF
    00000426 A001                   BRA         L43
    00000428 0009                   NOP
    0000042A              L45:
    0000042A E200                   MOV         #0,R2      ; H'00000000
    0000042C              L43:
    0000042C 6023                   MOV         R2,R0
    0000042E 7F14                   ADD         #20,R15
    00000430 4F26                   LDS.L       @R15+,PR
    00000432 6EF6                   MOV.L       @R15+,R14
    00000434 6DF6                   MOV.L       @R15+,R13
    00000436 000B                   RTS
    00000438 0009                   NOP
    0000043A              L49:
    0000043A 00000002               .RES.W      1
    0000043C <00000000>             .DATA.L     _SIG_SEM
    00000440 <00000000>             .DATA.L     _local_enable
    00000444 80000000               .DATA.L     H'80000000
    00000448 <00000000>             .DATA.L     __$dad_tx_sem
    0000044C <00000000>             .DATA.L     _CRE_SEM
    00000450 <00000000>             .DATA.L     _WAI_SEM
D   00000000              __$dad_tx_sem:                   ; static: __$dad_tx_sem
    00000000 00000000               .DATA.L     H'00000000
    00000004 00                     .DATAB.B    28,0
    00000020              __$dad_tx_nest:                  ; static: __$dad_tx_nest
    00000020 00                     .DATA.B     H'00
    00000021 00                     .DATAB.B    3,0
SH SERIES C/C++ Compiler (Ver. checker(2003.03.17))                                              10-Nov-2011 18:53:55  PAGE    1


******** STATISTICS INFORMATION ********


********** ERROR INFORMATION ***********

NUMBER OF ERRORS:           0
NUMBER OF WARNINGS:         0
NUMBER OF INFORMATIONS:     0



******* SOURCE LINE INFORMATION ********

COMPILED SOURCE LINE:      244



******* SECTION SIZE INFORMATION *******

PROGRAM  SECTION (P):                               00000454 Byte(s)
CONSTANT SECTION (C):                               00000000 Byte(s)
DATA     SECTION (D):                               00000024 Byte(s)
BSS      SECTION (B):                               00000000 Byte(s)

TOTAL PROGRAM  SECTION: 00000454 Byte(s)
TOTAL CONSTANT SECTION: 00000000 Byte(s)
TOTAL DATA     SECTION: 00000024 Byte(s)
TOTAL BSS      SECTION: 00000000 Byte(s)

    TOTAL PROGRAM SIZE: 00000478 Byte(s)



********** LABEL INFORMATION ***********

NUMBER OF EXTERNAL REFERENCE SYMBOLS:           13
NUMBER OF EXTERNAL DEFINITION SYMBOLS:           2
NUMBER OF INTERNAL/EXTERNAL SYMBOLS:            39
*** COMMAND PARAMETER ***


  -cpu=sh3 -op=0 -en=big -me -debug -comment=nest -l -def=DEBUG,MAS_P5554,MAS_BIG_ENDIAN -i=P:\PRESTO2\SHINC,C:\usr\local\SH\7_1_1\include,P:\PRESTO2\NORTI_12\inc dadcwr.c 

