SH SERIES C/C++ Compiler (Ver. checker(2003.03.17))                                              10-Nov-2011 18:53:54  PAGE    1

************ OBJECT LISTING ************

FILE NAME: daditsk.c

SCT OFFSET   CODE       C LABEL     INSTRUCTION OPERAND    COMMENT

P   00000000              __$dad_int_tsk:                  ; function: __$dad_int_tsk
                                                           ; frame size=84
    00000000 2FA6                   MOV.L       R10,@-R15
    00000002 2FB6                   MOV.L       R11,@-R15
    00000004 2FC6                   MOV.L       R12,@-R15
    00000006 2FD6                   MOV.L       R13,@-R15
    00000008 2FE6                   MOV.L       R14,@-R15
    0000000A 4F22                   STS.L       PR,@-R15
    0000000C 7FC4                   ADD         #-60,R15
    0000000E 6E43                   MOV         R4,R14
    00000010 D2B2                   MOV.L       L161+8,R2  ; _dadc_ctxt_tbl
    00000012 65E3                   MOV         R14,R5
    00000014 6653                   MOV         R5,R6
    00000016 E305                   MOV         #5,R3      ; H'00000005
    00000018 463D                   SHLD        R3,R6
    0000001A 326C                   ADD         R6,R2
    0000001C 6A23                   MOV         R2,R10
    0000001E 6DA2                   MOV.L       @R10,R13
    00000020 52A6                   MOV.L       @(24,R10),R2
    00000022 3D2C                   ADD         R2,R13
    00000024 E301                   MOV         #1,R3      ; H'00000001
    00000026 6033                   MOV         R3,R0
    00000028 8800                   CMP/EQ      #0,R0
    0000002A 8B01                   BF          L170
    0000002C A33F                   BRA         L26
    0000002E 0009                   NOP
    00000030              L170:
    00000030              L27:
    00000030 D3AB                   MOV.L       L161+12,R3 ; _SLP_TSK
    00000032 430B                   JSR         @R3
    00000034 0009                   NOP
    00000036 6203                   MOV         R0,R2
    00000038 2228                   TST         R2,R2
    0000003A 890D                   BT          L29
    0000003C D4A9                   MOV.L       L161+16,R4 ; __iob
    0000003E 7428                   ADD         #40,R4
    00000040 D2A9                   MOV.L       L161+20,R2 ; L194
    00000042 2F22                   MOV.L       R2,@R15
    00000044 D2A9                   MOV.L       L161+24,R2 ; L195
    00000046 1F21                   MOV.L       R2,@(4,R15)
    00000048 93BD                   MOV.W       L160,R3    ; H'0088
    0000004A 1F32                   MOV.L       R3,@(8,R15)
    0000004C D3A8                   MOV.L       L161+28,R3 ; _fprintf
    0000004E 430B                   JSR         @R3
    00000050 0009                   NOP
    00000052 D3A8                   MOV.L       L161+32,R3 ; _abort
    00000054 430B                   JSR         @R3
    00000056 0009                   NOP
    00000058              L29:
    00000058 64D3                   MOV         R13,R4
    0000005A B6AA                   BSR         __$chg_ul_bef_write
    0000005C 0009                   NOP
    0000005E 85D1                   MOV.W       @(2,R13),R0
    00000060 6603                   MOV         R0,R6
    00000062 666F                   EXTS.W      R6,R6
    00000064 6263                   MOV         R6,R2
    00000066 93AF                   MOV.W       L160+2,R3  ; H'0201
    00000068 3230                   CMP/EQ      R3,R2
    0000006A 893B                   BT          L31
    0000006C 93AD                   MOV.W       L160+4,R3  ; H'0202
    0000006E 3230                   CMP/EQ      R3,R2
    00000070 895D                   BT          L33
    00000072 93AB                   MOV.W       L160+6,R3  ; H'0203
    00000074 3230                   CMP/EQ      R3,R2
    00000076 8B01                   BF          L171
    00000078 A07F                   BRA         L35
    0000007A 0009                   NOP
    0000007C              L171:
    0000007C 93A7                   MOV.W       L160+8,R3  ; H'0204
    0000007E 3230                   CMP/EQ      R3,R2
    00000080 8B01                   BF          L172
    00000082 A0B1                   BRA         L37
    00000084 0009                   NOP
    00000086              L172:
    00000086 93A3                   MOV.W       L160+10,R3 ; H'0205
    00000088 3230                   CMP/EQ      R3,R2
    0000008A 8B01                   BF          L173
    0000008C A146                   BRA         L39
    0000008E 0009                   NOP
    00000090              L173:
    00000090 939F                   MOV.W       L160+12,R3 ; H'0301
    00000092 3230                   CMP/EQ      R3,R2
    00000094 8B01                   BF          L174
    00000096 A16D                   BRA         L41
    00000098 0009                   NOP
    0000009A              L174:
    0000009A 939B                   MOV.W       L160+14,R3 ; H'0302
    0000009C 3230                   CMP/EQ      R3,R2
    0000009E 8B01                   BF          L175
    000000A0 A18C                   BRA         L43
    000000A2 0009                   NOP
    000000A4              L175:
    000000A4 9397                   MOV.W       L160+16,R3 ; H'0303
    000000A6 3230                   CMP/EQ      R3,R2
    000000A8 8B01                   BF          L176
    000000AA A1AC                   BRA         L45
    000000AC 0009                   NOP
    000000AE              L176:
    000000AE 9393                   MOV.W       L160+18,R3 ; H'0304
    000000B0 3230                   CMP/EQ      R3,R2
    000000B2 8B01                   BF          L177
    000000B4 A1D1                   BRA         L47
    000000B6 0009                   NOP
    000000B8              L177:
    000000B8 938F                   MOV.W       L160+20,R3 ; H'0305
    000000BA 3230                   CMP/EQ      R3,R2
    000000BC 8B01                   BF          L178
    000000BE A21D                   BRA         L49
    000000C0 0009                   NOP
    000000C2              L178:
    000000C2 938B                   MOV.W       L160+22,R3 ; H'0306
    000000C4 3230                   CMP/EQ      R3,R2
    000000C6 8B01                   BF          L179
    000000C8 A23F                   BRA         L51
    000000CA 0009                   NOP
    000000CC              L179:
    000000CC 9387                   MOV.W       L160+24,R3 ; H'0307
    000000CE 3230                   CMP/EQ      R3,R2
    000000D0 8B01                   BF          L180
    000000D2 A260                   BRA         L53
    000000D4 0009                   NOP
    000000D6              L180:
    000000D6 9383                   MOV.W       L160+26,R3 ; H'0308
    000000D8 3230                   CMP/EQ      R3,R2
    000000DA 8B01                   BF          L181
    000000DC A289                   BRA         L54
    000000DE 0009                   NOP
    000000E0              L181:
    000000E0 A2D6                   BRA         L55
    000000E2 0009                   NOP
    000000E4              L31:
    000000E4 EC02                   MOV         #2,R12     ; H'00000002
    000000E6 EB01                   MOV         #1,R11     ; H'00000001
    000000E8 65F3                   MOV         R15,R5
    000000EA 7510                   ADD         #16,R5
    000000EC D482                   MOV.L       L161+36,R4 ; __$dad_boot_evf
    000000EE 62E3                   MOV         R14,R2
    000000F0 4208                   SHLL2       R2
    000000F2 4200                   SHLL        R2
    000000F4 7204                   ADD         #4,R2
    000000F6 6023                   MOV         R2,R0
    000000F8 064E                   MOV.L       @(R0,R4),R6
    000000FA 64C3                   MOV         R12,R4
    000000FC 67B3                   MOV         R11,R7
    000000FE D37F                   MOV.L       L161+40,R3 ; _SET_FLG
    00000100 430B                   JSR         @R3
    00000102 0009                   NOP
    00000104 6203                   MOV         R0,R2
    00000106 2228                   TST         R2,R2
    00000108 8B01                   BF          L182
    0000010A A2CA                   BRA         L57
    0000010C 0009                   NOP
    0000010E              L182:
    0000010E D475                   MOV.L       L161+16,R4 ; __iob
    00000110 7428                   ADD         #40,R4
    00000112 D275                   MOV.L       L161+20,R2 ; L194
    00000114 2F22                   MOV.L       R2,@R15
    00000116 D275                   MOV.L       L161+24,R2 ; L195
    00000118 1F21                   MOV.L       R2,@(4,R15)
    0000011A 9362                   MOV.W       L160+28,R3 ; H'0093
    0000011C 1F32                   MOV.L       R3,@(8,R15)
    0000011E D374                   MOV.L       L161+28,R3 ; _fprintf
    00000120 430B                   JSR         @R3
    00000122 0009                   NOP
    00000124 D373                   MOV.L       L161+32,R3 ; _abort
    00000126 430B                   JSR         @R3
    00000128 0009                   NOP
    0000012A A2BA                   BRA         L57
    0000012C 0009                   NOP
    0000012E              L33:
    0000012E EC02                   MOV         #2,R12     ; H'00000002
    00000130 EB04                   MOV         #4,R11     ; H'00000004
    00000132 65F3                   MOV         R15,R5
    00000134 7510                   ADD         #16,R5
    00000136 D470                   MOV.L       L161+36,R4 ; __$dad_boot_evf
    00000138 66E3                   MOV         R14,R6
    0000013A 6263                   MOV         R6,R2
    0000013C 4208                   SHLL2       R2
    0000013E 4200                   SHLL        R2
    00000140 7204                   ADD         #4,R2
    00000142 6023                   MOV         R2,R0
    00000144 064E                   MOV.L       @(R0,R4),R6
    00000146 64C3                   MOV         R12,R4
    00000148 67B3                   MOV         R11,R7
    0000014A D36C                   MOV.L       L161+40,R3 ; _SET_FLG
    0000014C 430B                   JSR         @R3
    0000014E 0009                   NOP
    00000150 6203                   MOV         R0,R2
    00000152 2228                   TST         R2,R2
    00000154 8B01                   BF          L183
    00000156 A2A4                   BRA         L57
    00000158 0009                   NOP
    0000015A              L183:
    0000015A D462                   MOV.L       L161+16,R4 ; __iob
    0000015C 7428                   ADD         #40,R4
    0000015E D262                   MOV.L       L161+20,R2 ; L194
    00000160 2F22                   MOV.L       R2,@R15
    00000162 D262                   MOV.L       L161+24,R2 ; L195
    00000164 1F21                   MOV.L       R2,@(4,R15)
    00000166 933D                   MOV.W       L160+30,R3 ; H'0098
    00000168 1F32                   MOV.L       R3,@(8,R15)
    0000016A D361                   MOV.L       L161+28,R3 ; _fprintf
    0000016C 430B                   JSR         @R3
    0000016E 0009                   NOP
    00000170 D360                   MOV.L       L161+32,R3 ; _abort
    00000172 430B                   JSR         @R3
    00000174 0009                   NOP
    00000176 A294                   BRA         L57
    00000178 0009                   NOP
    0000017A              L35:
    0000017A EC02                   MOV         #2,R12     ; H'00000002
    0000017C 9326                   MOV.W       L160+6,R3  ; H'0203
    0000017E 6B33                   MOV         R3,R11
    00000180 65F3                   MOV         R15,R5
    00000182 7510                   ADD         #16,R5
    00000184 D45E                   MOV.L       L161+44,R4 ; __$dad_spn_evf
    00000186 62E3                   MOV         R14,R2
    00000188 4208                   SHLL2       R2
    0000018A 4200                   SHLL        R2
    0000018C 7204                   ADD         #4,R2
    0000018E 6023                   MOV         R2,R0
    00000190 064E                   MOV.L       @(R0,R4),R6
    00000192 64C3                   MOV         R12,R4
    00000194 67B3                   MOV         R11,R7
    00000196 D359                   MOV.L       L161+40,R3 ; _SET_FLG
    00000198 430B                   JSR         @R3
    0000019A 0009                   NOP
    0000019C 6203                   MOV         R0,R2
    0000019E 2228                   TST         R2,R2
    000001A0 8B01                   BF          L184
    000001A2 A27E                   BRA         L57
    000001A4 0009                   NOP
    000001A6              L184:
    000001A6 D44F                   MOV.L       L161+16,R4 ; __iob
    000001A8 7428                   ADD         #40,R4
    000001AA D24F                   MOV.L       L161+20,R2 ; L194
    000001AC 2F22                   MOV.L       R2,@R15
    000001AE D24F                   MOV.L       L161+24,R2 ; L195
    000001B0 1F21                   MOV.L       R2,@(4,R15)
    000001B2 9318                   MOV.W       L160+32,R3 ; H'009D
    000001B4 1F32                   MOV.L       R3,@(8,R15)
    000001B6 D34E                   MOV.L       L161+28,R3 ; _fprintf
    000001B8 430B                   JSR         @R3
    000001BA 0009                   NOP
    000001BC D34D                   MOV.L       L161+32,R3 ; _abort
    000001BE 430B                   JSR         @R3
    000001C0 0009                   NOP
    000001C2 A26E                   BRA         L57
    000001C4 0009                   NOP
    000001C6              L160:
    000001C6 0088                   .DATA.W     H'0088
    000001C8 0201                   .DATA.W     H'0201
    000001CA 0202                   .DATA.W     H'0202
    000001CC 0203                   .DATA.W     H'0203
    000001CE 0204                   .DATA.W     H'0204
    000001D0 0205                   .DATA.W     H'0205
    000001D2 0301                   .DATA.W     H'0301
    000001D4 0302                   .DATA.W     H'0302
    000001D6 0303                   .DATA.W     H'0303
    000001D8 0304                   .DATA.W     H'0304
    000001DA 0305                   .DATA.W     H'0305
    000001DC 0306                   .DATA.W     H'0306
    000001DE 0307                   .DATA.W     H'0307
    000001E0 0308                   .DATA.W     H'0308
    000001E2 0093                   .DATA.W     H'0093
    000001E4 0098                   .DATA.W     H'0098
    000001E6 009D                   .DATA.W     H'009D
    000001E8              L37:
    000001E8 52D1                   MOV.L       @(4,R13),R2
    000001EA 2228                   TST         R2,R2
    000001EC 894B                   BT          L61
    000001EE D245                   MOV.L       L161+48,R2 ; __$mpl0
    000001F0 5621                   MOV.L       @(4,R2),R6
    000001F2 6263                   MOV         R6,R2
    000001F4 EC40                   MOV         #64,R12    ; H'00000040
    000001F6 66F3                   MOV         R15,R6
    000001F8 7638                   ADD         #56,R6
    000001FA E7FF                   MOV         #-1,R7     ; H'FFFFFFFF
    000001FC 6423                   MOV         R2,R4
    000001FE 65C3                   MOV         R12,R5
    00000200 D341                   MOV.L       L161+52,R3 ; _v4_tget_mpl
    00000202 430B                   JSR         @R3
    00000204 0009                   NOP
    00000206 6203                   MOV         R0,R2
    00000208 2228                   TST         R2,R2
    0000020A 890D                   BT          L63
    0000020C D435                   MOV.L       L161+16,R4 ; __iob
    0000020E 7428                   ADD         #40,R4
    00000210 D235                   MOV.L       L161+20,R2 ; L194
    00000212 2F22                   MOV.L       R2,@R15
    00000214 D235                   MOV.L       L161+24,R2 ; L195
    00000216 1F21                   MOV.L       R2,@(4,R15)
    00000218 935C                   MOV.W       L161,R3    ; H'00A8
    0000021A 1F32                   MOV.L       R3,@(8,R15)
    0000021C D334                   MOV.L       L161+28,R3 ; _fprintf
    0000021E 430B                   JSR         @R3
    00000220 0009                   NOP
    00000222 D334                   MOV.L       L161+32,R3 ; _abort
    00000224 430B                   JSR         @R3
    00000226 0009                   NOP
    00000228              L63:
    00000228 E300                   MOV         #0,R3      ; H'00000000
    0000022A 1F37                   MOV.L       R3,@(28,R15)
    0000022C E210                   MOV         #16,R2     ; H'00000010
    0000022E 6323                   MOV         R2,R3
    00000230 1F38                   MOV.L       R3,@(32,R15)
    00000232 63E3                   MOV         R14,R3
    00000234 1F39                   MOV.L       R3,@(36,R15)
    00000236 934E                   MOV.W       L161+2,R3  ; H'0204
    00000238 1F3A                   MOV.L       R3,@(40,R15)
    0000023A 53FE                   MOV.L       @(56,R15),R3
    0000023C 6433                   MOV         R3,R4
    0000023E 7404                   ADD         #4,R4
    00000240 65F3                   MOV         R15,R5
    00000242 751C                   ADD         #28,R5
    00000244 E610                   MOV         #16,R6     ; H'00000010
    00000246 D331                   MOV.L       L161+56,R3 ; _memcpy
    00000248 430B                   JSR         @R3
    0000024A 0009                   NOP
    0000024C D230                   MOV.L       L161+60,R2 ; __$dad_afv_mbx
    0000024E 5621                   MOV.L       @(4,R2),R6
    00000250 6263                   MOV         R6,R2
    00000252 6423                   MOV         R2,R4
    00000254 55FE                   MOV.L       @(56,R15),R5
    00000256 D32F                   MOV.L       L161+64,R3 ; _v4_snd_mbx
    00000258 430B                   JSR         @R3
    0000025A 0009                   NOP
    0000025C 6203                   MOV         R0,R2
    0000025E 2228                   TST         R2,R2
    00000260 8B01                   BF          L185
    00000262 A21E                   BRA         L57
    00000264 0009                   NOP
    00000266              L185:
    00000266 D41F                   MOV.L       L161+16,R4 ; __iob
    00000268 7428                   ADD         #40,R4
    0000026A D21F                   MOV.L       L161+20,R2 ; L194
    0000026C 2F22                   MOV.L       R2,@R15
    0000026E D21F                   MOV.L       L161+24,R2 ; L195
    00000270 1F21                   MOV.L       R2,@(4,R15)
    00000272 9331                   MOV.W       L161+4,R3  ; H'00B2
    00000274 1F32                   MOV.L       R3,@(8,R15)
    00000276 D31E                   MOV.L       L161+28,R3 ; _fprintf
    00000278 430B                   JSR         @R3
    0000027A 0009                   NOP
    0000027C D31D                   MOV.L       L161+32,R3 ; _abort
    0000027E 430B                   JSR         @R3
    00000280 0009                   NOP
    00000282 A20E                   BRA         L57
    00000284 0009                   NOP
    00000286              L61:
    00000286 EB02                   MOV         #2,R11     ; H'00000002
    00000288 9325                   MOV.W       L161+2,R3  ; H'0204
    0000028A 6C33                   MOV         R3,R12
    0000028C 65F3                   MOV         R15,R5
    0000028E 7510                   ADD         #16,R5
    00000290 D421                   MOV.L       L161+68,R4 ; __$dad_afv_evf
    00000292 66E3                   MOV         R14,R6
    00000294 6263                   MOV         R6,R2
    00000296 4208                   SHLL2       R2
    00000298 4200                   SHLL        R2
    0000029A 7204                   ADD         #4,R2
    0000029C 6023                   MOV         R2,R0
    0000029E 064E                   MOV.L       @(R0,R4),R6
    000002A0 67C3                   MOV         R12,R7
    000002A2 64B3                   MOV         R11,R4
    000002A4 D315                   MOV.L       L161+40,R3 ; _SET_FLG
    000002A6 430B                   JSR         @R3
    000002A8 0009                   NOP
    000002AA 6203                   MOV         R0,R2
    000002AC 2228                   TST         R2,R2
    000002AE 8B01                   BF          L186
    000002B0 A1F7                   BRA         L57
    000002B2 0009                   NOP
    000002B4              L186:
    000002B4 D40B                   MOV.L       L161+16,R4 ; __iob
    000002B6 7428                   ADD         #40,R4
    000002B8 D20B                   MOV.L       L161+20,R2 ; L194
    000002BA 2F22                   MOV.L       R2,@R15
    000002BC D20B                   MOV.L       L161+24,R2 ; L195
    000002BE 1F21                   MOV.L       R2,@(4,R15)
    000002C0 930B                   MOV.W       L161+6,R3  ; H'00B7
    000002C2 1F32                   MOV.L       R3,@(8,R15)
    000002C4 D30A                   MOV.L       L161+28,R3 ; _fprintf
    000002C6 430B                   JSR         @R3
    000002C8 0009                   NOP
    000002CA D30A                   MOV.L       L161+32,R3 ; _abort
    000002CC 430B                   JSR         @R3
    000002CE 0009                   NOP
    000002D0 A1E7                   BRA         L57
    000002D2 0009                   NOP
    000002D4              L161:
    000002D4 00A8                   .DATA.W     H'00A8
    000002D6 0204                   .DATA.W     H'0204
    000002D8 00B2                   .DATA.W     H'00B2
    000002DA 00B7                   .DATA.W     H'00B7
    000002DC <00000000>             .DATA.L     _dadc_ctxt_tbl
    000002E0 <00000000>             .DATA.L     _SLP_TSK
    000002E4 <00000000>             .DATA.L     __iob
    000002E8 <00000000>             .DATA.L     L194
    000002EC <00000000>             .DATA.L     L195
    000002F0 <00000000>             .DATA.L     _fprintf
    000002F4 <00000000>             .DATA.L     _abort
    000002F8 <00000000>             .DATA.L     __$dad_boot_evf
    000002FC <00000000>             .DATA.L     _SET_FLG
    00000300 <00000000>             .DATA.L     __$dad_spn_evf
    00000304 <00000000>             .DATA.L     __$mpl0
    00000308 <00000000>             .DATA.L     _v4_tget_mpl
    0000030C <00000000>             .DATA.L     _memcpy
    00000310 <00000000>             .DATA.L     __$dad_afv_mbx
    00000314 <00000000>             .DATA.L     _v4_snd_mbx
    00000318 <00000000>             .DATA.L     __$dad_afv_evf
    0000031C              L39:
    0000031C E702                   MOV         #2,R7      ; H'00000002
    0000031E D5C8                   MOV.L       L164+4,R5  ; _dad_afv_err
    00000320 62E3                   MOV         R14,R2
    00000322 6623                   MOV         R2,R6
    00000324 4208                   SHLL2       R2
    00000326 4200                   SHLL        R2
    00000328 4608                   SHLL2       R6
    0000032A 326C                   ADD         R6,R2
    0000032C 352C                   ADD         R2,R5
    0000032E E60C                   MOV         #12,R6     ; H'0000000C
    00000330 64E3                   MOV         R14,R4
    00000332 677D                   EXTU.W      R7,R7
    00000334 D3C3                   MOV.L       L164+8,R3  ; _dad_dpm_read
    00000336 430B                   JSR         @R3
    00000338 0009                   NOP
    0000033A 6203                   MOV         R0,R2
    0000033C 4215                   CMP/PL      R2
    0000033E 890D                   BT          L67
    00000340 D4C1                   MOV.L       L164+12,R4 ; __iob
    00000342 7428                   ADD         #40,R4
    00000344 D2C1                   MOV.L       L164+16,R2 ; L201
    00000346 2F22                   MOV.L       R2,@R15
    00000348 D2C1                   MOV.L       L164+20,R2 ; L195
    0000034A 1F21                   MOV.L       R2,@(4,R15)
    0000034C 9381                   MOV.W       L162,R3    ; H'00BE
    0000034E 1F32                   MOV.L       R3,@(8,R15)
    00000350 D3C0                   MOV.L       L164+24,R3 ; _fprintf
    00000352 430B                   JSR         @R3
    00000354 0009                   NOP
    00000356 D3C0                   MOV.L       L164+28,R3 ; _abort
    00000358 430B                   JSR         @R3
    0000035A 0009                   NOP
    0000035C              L67:
    0000035C D4B8                   MOV.L       L164+4,R4  ; _dad_afv_err
    0000035E 62E3                   MOV         R14,R2
    00000360 6623                   MOV         R2,R6
    00000362 4208                   SHLL2       R2
    00000364 4200                   SHLL        R2
    00000366 4608                   SHLL2       R6
    00000368 326C                   ADD         R6,R2
    0000036A 342C                   ADD         R2,R4
    0000036C B547                   BSR         __$chg_ul_aft_read1
    0000036E 0009                   NOP
    00000370 A197                   BRA         L57
    00000372 0009                   NOP
    00000374              L41:
    00000374 E702                   MOV         #2,R7      ; H'00000002
    00000376 D5B9                   MOV.L       L164+32,R5 ; _dad_slf_chk
    00000378 62E3                   MOV         R14,R2
    0000037A 4208                   SHLL2       R2
    0000037C 352C                   ADD         R2,R5
    0000037E E604                   MOV         #4,R6      ; H'00000004
    00000380 64E3                   MOV         R14,R4
    00000382 677D                   EXTU.W      R7,R7
    00000384 D3AF                   MOV.L       L164+8,R3  ; _dad_dpm_read
    00000386 430B                   JSR         @R3
    00000388 0009                   NOP
    0000038A 6203                   MOV         R0,R2
    0000038C 4215                   CMP/PL      R2
    0000038E 890D                   BT          L69
    00000390 D4AD                   MOV.L       L164+12,R4 ; __iob
    00000392 7428                   ADD         #40,R4
    00000394 D2AD                   MOV.L       L164+16,R2 ; L201
    00000396 2F22                   MOV.L       R2,@R15
    00000398 D2AD                   MOV.L       L164+20,R2 ; L195
    0000039A 1F21                   MOV.L       R2,@(4,R15)
    0000039C 935A                   MOV.W       L162+2,R3  ; H'00C7
    0000039E 1F32                   MOV.L       R3,@(8,R15)
    000003A0 D3AC                   MOV.L       L164+24,R3 ; _fprintf
    000003A2 430B                   JSR         @R3
    000003A4 0009                   NOP
    000003A6 D3AC                   MOV.L       L164+28,R3 ; _abort
    000003A8 430B                   JSR         @R3
    000003AA 0009                   NOP
    000003AC              L69:
    000003AC D4AB                   MOV.L       L164+32,R4 ; _dad_slf_chk
    000003AE 62E3                   MOV         R14,R2
    000003B0 4208                   SHLL2       R2
    000003B2 342C                   ADD         R2,R4
    000003B4 B57E                   BSR         __$chg_ul_aft_read2
    000003B6 0009                   NOP
    000003B8 A173                   BRA         L57
    000003BA 0009                   NOP
    000003BC              L43:
    000003BC EB02                   MOV         #2,R11     ; H'00000002
    000003BE EC02                   MOV         #2,R12     ; H'00000002
    000003C0 65F3                   MOV         R15,R5
    000003C2 7510                   ADD         #16,R5
    000003C4 D4A6                   MOV.L       L164+36,R4 ; __$dad_boot_evf
    000003C6 62E3                   MOV         R14,R2
    000003C8 4208                   SHLL2       R2
    000003CA 4200                   SHLL        R2
    000003CC 7204                   ADD         #4,R2
    000003CE 6023                   MOV         R2,R0
    000003D0 064E                   MOV.L       @(R0,R4),R6
    000003D2 67C3                   MOV         R12,R7
    000003D4 64B3                   MOV         R11,R4
    000003D6 D3A3                   MOV.L       L164+40,R3 ; _SET_FLG
    000003D8 430B                   JSR         @R3
    000003DA 0009                   NOP
    000003DC 6203                   MOV         R0,R2
    000003DE 2228                   TST         R2,R2
    000003E0 8B01                   BF          L187
    000003E2 A15E                   BRA         L57
    000003E4 0009                   NOP
    000003E6              L187:
    000003E6 D498                   MOV.L       L164+12,R4 ; __iob
    000003E8 7428                   ADD         #40,R4
    000003EA D29F                   MOV.L       L164+44,R2 ; L194
    000003EC 2F22                   MOV.L       R2,@R15
    000003EE D298                   MOV.L       L164+20,R2 ; L195
    000003F0 1F21                   MOV.L       R2,@(4,R15)
    000003F2 9330                   MOV.W       L162+4,R3  ; H'00CF
    000003F4 1F32                   MOV.L       R3,@(8,R15)
    000003F6 D397                   MOV.L       L164+24,R3 ; _fprintf
    000003F8 430B                   JSR         @R3
    000003FA 0009                   NOP
    000003FC D396                   MOV.L       L164+28,R3 ; _abort
    000003FE 430B                   JSR         @R3
    00000400 0009                   NOP
    00000402 A14E                   BRA         L57
    00000404 0009                   NOP
    00000406              L45:
    00000406 EB02                   MOV         #2,R11     ; H'00000002
    00000408 EC08                   MOV         #8,R12     ; H'00000008
    0000040A 65F3                   MOV         R15,R5
    0000040C 7510                   ADD         #16,R5
    0000040E D494                   MOV.L       L164+36,R4 ; __$dad_boot_evf
    00000410 66E3                   MOV         R14,R6
    00000412 6263                   MOV         R6,R2
    00000414 4208                   SHLL2       R2
    00000416 4200                   SHLL        R2
    00000418 7204                   ADD         #4,R2
    0000041A 6023                   MOV         R2,R0
    0000041C 064E                   MOV.L       @(R0,R4),R6
    0000041E 67C3                   MOV         R12,R7
    00000420 64B3                   MOV         R11,R4
    00000422 D390                   MOV.L       L164+40,R3 ; _SET_FLG
    00000424 430B                   JSR         @R3
    00000426 0009                   NOP
    00000428 6203                   MOV         R0,R2
    0000042A 2228                   TST         R2,R2
    0000042C 8B01                   BF          L188
    0000042E A138                   BRA         L57
    00000430 0009                   NOP
    00000432              L188:
    00000432 D485                   MOV.L       L164+12,R4 ; __iob
    00000434 7428                   ADD         #40,R4
    00000436 D28C                   MOV.L       L164+44,R2 ; L194
    00000438 2F22                   MOV.L       R2,@R15
    0000043A D285                   MOV.L       L164+20,R2 ; L195
    0000043C 1F21                   MOV.L       R2,@(4,R15)
    0000043E 930B                   MOV.W       L162+6,R3  ; H'00D4
    00000440 1F32                   MOV.L       R3,@(8,R15)
    00000442 D384                   MOV.L       L164+24,R3 ; _fprintf
    00000444 430B                   JSR         @R3
    00000446 0009                   NOP
    00000448 D383                   MOV.L       L164+28,R3 ; _abort
    0000044A 430B                   JSR         @R3
    0000044C 0009                   NOP
    0000044E A128                   BRA         L57
    00000450 0009                   NOP
    00000452              L162:
    00000452 00BE                   .DATA.W     H'00BE
    00000454 00C7                   .DATA.W     H'00C7
    00000456 00CF                   .DATA.W     H'00CF
    00000458 00D4                   .DATA.W     H'00D4
    0000045A              L47:
    0000045A D684                   MOV.L       L164+48,R6 ; __$mpl0
    0000045C 5261                   MOV.L       @(4,R6),R2
    0000045E EB40                   MOV         #64,R11    ; H'00000040
    00000460 66F3                   MOV         R15,R6
    00000462 7638                   ADD         #56,R6
    00000464 E7FF                   MOV         #-1,R7     ; H'FFFFFFFF
    00000466 6423                   MOV         R2,R4
    00000468 65B3                   MOV         R11,R5
    0000046A D381                   MOV.L       L164+52,R3 ; _v4_tget_mpl
    0000046C 430B                   JSR         @R3
    0000046E 0009                   NOP
    00000470 6203                   MOV         R0,R2
    00000472 2228                   TST         R2,R2
    00000474 890D                   BT          L73
    00000476 D474                   MOV.L       L164+12,R4 ; __iob
    00000478 7428                   ADD         #40,R4
    0000047A D27B                   MOV.L       L164+44,R2 ; L194
    0000047C 2F22                   MOV.L       R2,@R15
    0000047E D274                   MOV.L       L164+20,R2 ; L195
    00000480 1F21                   MOV.L       R2,@(4,R15)
    00000482 93AD                   MOV.W       L163,R3    ; H'00D9
    00000484 1F32                   MOV.L       R3,@(8,R15)
    00000486 D373                   MOV.L       L164+24,R3 ; _fprintf
    00000488 430B                   JSR         @R3
    0000048A 0009                   NOP
    0000048C D372                   MOV.L       L164+28,R3 ; _abort
    0000048E 430B                   JSR         @R3
    00000490 0009                   NOP
    00000492              L73:
    00000492 E300                   MOV         #0,R3      ; H'00000000
    00000494 1F37                   MOV.L       R3,@(28,R15)
    00000496 E210                   MOV         #16,R2     ; H'00000010
    00000498 6323                   MOV         R2,R3
    0000049A 1F38                   MOV.L       R3,@(32,R15)
    0000049C 63E3                   MOV         R14,R3
    0000049E 1F39                   MOV.L       R3,@(36,R15)
    000004A0 939F                   MOV.W       L163+2,R3  ; H'0304
    000004A2 1F3A                   MOV.L       R3,@(40,R15)
    000004A4 53FE                   MOV.L       @(56,R15),R3
    000004A6 6433                   MOV         R3,R4
    000004A8 7404                   ADD         #4,R4
    000004AA 65F3                   MOV         R15,R5
    000004AC 751C                   ADD         #28,R5
    000004AE E610                   MOV         #16,R6     ; H'00000010
    000004B0 D370                   MOV.L       L164+56,R3 ; _memcpy
    000004B2 430B                   JSR         @R3
    000004B4 0009                   NOP
    000004B6 D570                   MOV.L       L164+60,R5 ; __$dad_zc_mbx
    000004B8 66E3                   MOV         R14,R6
    000004BA 6263                   MOV         R6,R2
    000004BC 4208                   SHLL2       R2
    000004BE 4200                   SHLL        R2
    000004C0 7204                   ADD         #4,R2
    000004C2 6023                   MOV         R2,R0
    000004C4 065E                   MOV.L       @(R0,R5),R6
    000004C6 6263                   MOV         R6,R2
    000004C8 6423                   MOV         R2,R4
    000004CA 55FE                   MOV.L       @(56,R15),R5
    000004CC D36B                   MOV.L       L164+64,R3 ; _v4_snd_mbx
    000004CE 430B                   JSR         @R3
    000004D0 0009                   NOP
    000004D2 6203                   MOV         R0,R2
    000004D4 2228                   TST         R2,R2
    000004D6 8B01                   BF          L189
    000004D8 A0E3                   BRA         L57
    000004DA 0009                   NOP
    000004DC              L189:
    000004DC D45A                   MOV.L       L164+12,R4 ; __iob
    000004DE 7428                   ADD         #40,R4
    000004E0 D261                   MOV.L       L164+44,R2 ; L194
    000004E2 2F22                   MOV.L       R2,@R15
    000004E4 D25A                   MOV.L       L164+20,R2 ; L195
    000004E6 1F21                   MOV.L       R2,@(4,R15)
    000004E8 937C                   MOV.W       L163+4,R3  ; H'00E3
    000004EA 1F32                   MOV.L       R3,@(8,R15)
    000004EC D359                   MOV.L       L164+24,R3 ; _fprintf
    000004EE 430B                   JSR         @R3
    000004F0 0009                   NOP
    000004F2 D359                   MOV.L       L164+28,R3 ; _abort
    000004F4 430B                   JSR         @R3
    000004F6 0009                   NOP
    000004F8 A0D3                   BRA         L57
    000004FA 0009                   NOP
    000004FC              L49:
    000004FC EC02                   MOV         #2,R12     ; H'00000002
    000004FE 9372                   MOV.W       L163+6,R3  ; H'0305
    00000500 6B33                   MOV         R3,R11
    00000502 65F3                   MOV         R15,R5
    00000504 7510                   ADD         #16,R5
    00000506 D45E                   MOV.L       L164+68,R4 ; __$dad_mrd_evf
    00000508 66E3                   MOV         R14,R6
    0000050A 6263                   MOV         R6,R2
    0000050C 4208                   SHLL2       R2
    0000050E 4200                   SHLL        R2
    00000510 7204                   ADD         #4,R2
    00000512 6023                   MOV         R2,R0
    00000514 064E                   MOV.L       @(R0,R4),R6
    00000516 64C3                   MOV         R12,R4
    00000518 67B3                   MOV         R11,R7
    0000051A D352                   MOV.L       L164+40,R3 ; _SET_FLG
    0000051C 430B                   JSR         @R3
    0000051E 0009                   NOP
    00000520 6203                   MOV         R0,R2
    00000522 2228                   TST         R2,R2
    00000524 8B01                   BF          L190
    00000526 A0BC                   BRA         L57
    00000528 0009                   NOP
    0000052A              L190:
    0000052A D447                   MOV.L       L164+12,R4 ; __iob
    0000052C 7428                   ADD         #40,R4
    0000052E D24E                   MOV.L       L164+44,R2 ; L194
    00000530 2F22                   MOV.L       R2,@R15
    00000532 D247                   MOV.L       L164+20,R2 ; L195
    00000534 1F21                   MOV.L       R2,@(4,R15)
    00000536 9357                   MOV.W       L163+8,R3  ; H'00E8
    00000538 1F32                   MOV.L       R3,@(8,R15)
    0000053A D346                   MOV.L       L164+24,R3 ; _fprintf
    0000053C 430B                   JSR         @R3
    0000053E 0009                   NOP
    00000540 D345                   MOV.L       L164+28,R3 ; _abort
    00000542 430B                   JSR         @R3
    00000544 0009                   NOP
    00000546 A0AC                   BRA         L57
    00000548 0009                   NOP
    0000054A              L51:
    0000054A EC02                   MOV         #2,R12     ; H'00000002
    0000054C 934D                   MOV.W       L163+10,R3 ; H'0306
    0000054E 6B33                   MOV         R3,R11
    00000550 65F3                   MOV         R15,R5
    00000552 7510                   ADD         #16,R5
    00000554 D44B                   MOV.L       L164+72,R4 ; __$dad_mwr_evf
    00000556 62E3                   MOV         R14,R2
    00000558 4208                   SHLL2       R2
    0000055A 4200                   SHLL        R2
    0000055C 7204                   ADD         #4,R2
    0000055E 6023                   MOV         R2,R0
    00000560 064E                   MOV.L       @(R0,R4),R6
    00000562 64C3                   MOV         R12,R4
    00000564 67B3                   MOV         R11,R7
    00000566 D33F                   MOV.L       L164+40,R3 ; _SET_FLG
    00000568 430B                   JSR         @R3
    0000056A 0009                   NOP
    0000056C 6203                   MOV         R0,R2
    0000056E 2228                   TST         R2,R2
    00000570 8B01                   BF          L191
    00000572 A096                   BRA         L57
    00000574 0009                   NOP
    00000576              L191:
    00000576 D434                   MOV.L       L164+12,R4 ; __iob
    00000578 7428                   ADD         #40,R4
    0000057A D23B                   MOV.L       L164+44,R2 ; L194
    0000057C 2F22                   MOV.L       R2,@R15
    0000057E D234                   MOV.L       L164+20,R2 ; L195
    00000580 1F21                   MOV.L       R2,@(4,R15)
    00000582 9333                   MOV.W       L163+12,R3 ; H'00ED
    00000584 1F32                   MOV.L       R3,@(8,R15)
    00000586 D333                   MOV.L       L164+24,R3 ; _fprintf
    00000588 430B                   JSR         @R3
    0000058A 0009                   NOP
    0000058C D332                   MOV.L       L164+28,R3 ; _abort
    0000058E 430B                   JSR         @R3
    00000590 0009                   NOP
    00000592 A086                   BRA         L57
    00000594 0009                   NOP
    00000596              L53:
    00000596 EC02                   MOV         #2,R12     ; H'00000002
    00000598 9329                   MOV.W       L163+14,R3 ; H'0307
    0000059A 6B33                   MOV         R3,R11
    0000059C 65F3                   MOV         R15,R5
    0000059E 7510                   ADD         #16,R5
    000005A0 D439                   MOV.L       L164+76,R4 ; __$dad_stam_evf
    000005A2 66E3                   MOV         R14,R6
    000005A4 6263                   MOV         R6,R2
    000005A6 4208                   SHLL2       R2
    000005A8 4200                   SHLL        R2
    000005AA 7204                   ADD         #4,R2
    000005AC 6023                   MOV         R2,R0
    000005AE 064E                   MOV.L       @(R0,R4),R6
    000005B0 64C3                   MOV         R12,R4
    000005B2 67B3                   MOV         R11,R7
    000005B4 D32B                   MOV.L       L164+40,R3 ; _SET_FLG
    000005B6 430B                   JSR         @R3
    000005B8 0009                   NOP
    000005BA 6203                   MOV         R0,R2
    000005BC 2228                   TST         R2,R2
    000005BE 8970                   BT          L57
    000005C0 D421                   MOV.L       L164+12,R4 ; __iob
    000005C2 7428                   ADD         #40,R4
    000005C4 D228                   MOV.L       L164+44,R2 ; L194
    000005C6 2F22                   MOV.L       R2,@R15
    000005C8 D221                   MOV.L       L164+20,R2 ; L195
    000005CA 1F21                   MOV.L       R2,@(4,R15)
    000005CC 9310                   MOV.W       L163+16,R3 ; H'00F2
    000005CE 1F32                   MOV.L       R3,@(8,R15)
    000005D0 D320                   MOV.L       L164+24,R3 ; _fprintf
    000005D2 430B                   JSR         @R3
    000005D4 0009                   NOP
    000005D6 D320                   MOV.L       L164+28,R3 ; _abort
    000005D8 430B                   JSR         @R3
    000005DA 0009                   NOP
    000005DC A061                   BRA         L57
    000005DE 0009                   NOP
    000005E0              L163:
    000005E0 00D9                   .DATA.W     H'00D9
    000005E2 0304                   .DATA.W     H'0304
    000005E4 00E3                   .DATA.W     H'00E3
    000005E6 0305                   .DATA.W     H'0305
    000005E8 00E8                   .DATA.W     H'00E8
    000005EA 0306                   .DATA.W     H'0306
    000005EC 00ED                   .DATA.W     H'00ED
    000005EE 0307                   .DATA.W     H'0307
    000005F0 00F2                   .DATA.W     H'00F2
    000005F2              L54:
    000005F2 EC02                   MOV         #2,R12     ; H'00000002
    000005F4 9322                   MOV.W       L164,R3    ; H'0308
    000005F6 6B33                   MOV         R3,R11
    000005F8 65F3                   MOV         R15,R5
    000005FA 7510                   ADD         #16,R5
    000005FC D423                   MOV.L       L164+80,R4 ; __$dad_stpm_evf
    000005FE 66E3                   MOV         R14,R6
    00000600 6263                   MOV         R6,R2
    00000602 4208                   SHLL2       R2
    00000604 4200                   SHLL        R2
    00000606 7204                   ADD         #4,R2
    00000608 6023                   MOV         R2,R0
    0000060A 064E                   MOV.L       @(R0,R4),R6
    0000060C 64C3                   MOV         R12,R4
    0000060E 67B3                   MOV         R11,R7
    00000610 D314                   MOV.L       L164+40,R3 ; _SET_FLG
    00000612 430B                   JSR         @R3
    00000614 0009                   NOP
    00000616 6203                   MOV         R0,R2
    00000618 2228                   TST         R2,R2
    0000061A 8942                   BT          L57
    0000061C D40A                   MOV.L       L164+12,R4 ; __iob
    0000061E 7428                   ADD         #40,R4
    00000620 D211                   MOV.L       L164+44,R2 ; L194
    00000622 2F22                   MOV.L       R2,@R15
    00000624 D20A                   MOV.L       L164+20,R2 ; L195
    00000626 1F21                   MOV.L       R2,@(4,R15)
    00000628 9309                   MOV.W       L164+2,R3  ; H'00F7
    0000062A 1F32                   MOV.L       R3,@(8,R15)
    0000062C D309                   MOV.L       L164+24,R3 ; _fprintf
    0000062E 430B                   JSR         @R3
    00000630 0009                   NOP
    00000632 D309                   MOV.L       L164+28,R3 ; _abort
    00000634 430B                   JSR         @R3
    00000636 0009                   NOP
    00000638 A033                   BRA         L57
    0000063A 0009                   NOP
    0000063C              L164:
    0000063C 0308                   .DATA.W     H'0308
    0000063E 00F7                   .DATA.W     H'00F7
    00000640 <00000000>             .DATA.L     _dad_afv_err
    00000644 <00000000>             .DATA.L     _dad_dpm_read
    00000648 <00000000>             .DATA.L     __iob
    0000064C <00000000>             .DATA.L     L201
    00000650 <00000000>             .DATA.L     L195
    00000654 <00000000>             .DATA.L     _fprintf
    00000658 <00000000>             .DATA.L     _abort
    0000065C <00000000>             .DATA.L     _dad_slf_chk
    00000660 <00000000>             .DATA.L     __$dad_boot_evf
    00000664 <00000000>             .DATA.L     _SET_FLG
    00000668 <00000000>             .DATA.L     L194
    0000066C <00000000>             .DATA.L     __$mpl0
    00000670 <00000000>             .DATA.L     _v4_tget_mpl
    00000674 <00000000>             .DATA.L     _memcpy
    00000678 <00000000>             .DATA.L     __$dad_zc_mbx
    0000067C <00000000>             .DATA.L     _v4_snd_mbx
    00000680 <00000000>             .DATA.L     __$dad_mrd_evf
    00000684 <00000000>             .DATA.L     __$dad_mwr_evf
    00000688 <00000000>             .DATA.L     __$dad_stam_evf
    0000068C <00000000>             .DATA.L     __$dad_stpm_evf
    00000690              L55:
    00000690 E200                   MOV         #0,R2      ; H'00000000
    00000692 6723                   MOV         R2,R7
    00000694 65A2                   MOV.L       @R10,R5
    00000696 52A3                   MOV.L       @(12,R10),R2
    00000698 352C                   ADD         R2,R5
    0000069A 647D                   EXTU.W      R7,R4
    0000069C D3B2                   MOV.L       L165,R3    ; _verify_puti
    0000069E 430B                   JSR         @R3
    000006A0 0009                   NOP
    000006A2              L57:
    000006A2 E301                   MOV         #1,R3      ; H'00000001
    000006A4 6033                   MOV         R3,R0
    000006A6 8800                   CMP/EQ      #0,R0
    000006A8 8901                   BT          L192
    000006AA ACC1                   BRA         L27
    000006AC 0009                   NOP
    000006AE              L192:
    000006AE              L26:
    000006AE 7F3C                   ADD         #60,R15
    000006B0 4F26                   LDS.L       @R15+,PR
    000006B2 6EF6                   MOV.L       @R15+,R14
    000006B4 6DF6                   MOV.L       @R15+,R13
    000006B6 6CF6                   MOV.L       @R15+,R12
    000006B8 6BF6                   MOV.L       @R15+,R11
    000006BA 6AF6                   MOV.L       @R15+,R10
    000006BC 000B                   RTS
    000006BE 0009                   NOP
    000006C0              _init_dadi_tsk:                  ; function: init_dadi_tsk
                                                           ; frame size=48
    000006C0 4F22                   STS.L       PR,@-R15
    000006C2 7FD4                   ADD         #-44,R15
    000006C4 6743                   MOV         R4,R7
    000006C6 1F79                   MOV.L       R7,@(36,R15)
    000006C8 D6A8                   MOV.L       L165+4,R6  ; __$mpl0
    000006CA 5261                   MOV.L       @(4,R6),R2
    000006CC 2228                   TST         R2,R2
    000006CE 8B0C                   BF          L81
    000006D0 E201                   MOV         #1,R2      ; H'00000001
    000006D2 D4A6                   MOV.L       L165+4,R4  ; __$mpl0
    000006D4 7404                   ADD         #4,R4
    000006D6 6523                   MOV         R2,R5
    000006D8 D3A5                   MOV.L       L165+8,R3  ; _MPL_ADR
    000006DA 430B                   JSR         @R3
    000006DC 0009                   NOP
    000006DE 6203                   MOV         R0,R2
    000006E0 2228                   TST         R2,R2
    000006E2 8902                   BT          L81
    000006E4 E2FF                   MOV         #-1,R2     ; H'FFFFFFFF
    000006E6 A19D                   BRA         L83
    000006E8 0009                   NOP
    000006EA              L81:
    000006EA D6A2                   MOV.L       L165+12,R6 ; __$dad_afv_mbx
    000006EC 5261                   MOV.L       @(4,R6),R2
    000006EE 2228                   TST         R2,R2
    000006F0 8B0D                   BF          L85
    000006F2 E203                   MOV         #3,R2      ; H'00000003
    000006F4 E60C                   MOV         #12,R6     ; H'0000000C
    000006F6 D59F                   MOV.L       L165+12,R5 ; __$dad_afv_mbx
    000006F8 7504                   ADD         #4,R5
    000006FA 6423                   MOV         R2,R4
    000006FC D39E                   MOV.L       L165+16,R3 ; _CRE_MBX
    000006FE 430B                   JSR         @R3
    00000700 0009                   NOP
    00000702 6203                   MOV         R0,R2
    00000704 2228                   TST         R2,R2
    00000706 8902                   BT          L85
    00000708 E2FF                   MOV         #-1,R2     ; H'FFFFFFFF
    0000070A A18B                   BRA         L83
    0000070C 0009                   NOP
    0000070E              L85:
    0000070E E21B                   MOV         #27,R2     ; H'0000001B
    00000710 1F25                   MOV.L       R2,@(20,R15)
    00000712 E61C                   MOV         #28,R6     ; H'0000001C
    00000714 62F3                   MOV         R15,R2
    00000716 7214                   ADD         #20,R2
    00000718 1261                   MOV.L       R6,@(4,R2)
    0000071A E229                   MOV         #41,R2     ; H'00000029
    0000071C 66F3                   MOV         R15,R6
    0000071E 7614                   ADD         #20,R6
    00000720 1622                   MOV.L       R2,@(8,R6)
    00000722 E62A                   MOV         #42,R6     ; H'0000002A
    00000724 62F3                   MOV         R15,R2
    00000726 7214                   ADD         #20,R2
    00000728 1263                   MOV.L       R6,@(12,R2)
    0000072A D494                   MOV.L       L165+20,R4 ; __$dad_boot_evf
    0000072C 57F9                   MOV.L       @(36,R15),R7
    0000072E 6673                   MOV         R7,R6
    00000730 6263                   MOV         R6,R2
    00000732 4208                   SHLL2       R2
    00000734 4200                   SHLL        R2
    00000736 7204                   ADD         #4,R2
    00000738 342C                   ADD         R2,R4
    0000073A 66F3                   MOV         R15,R6
    0000073C 7614                   ADD         #20,R6
    0000073E 6573                   MOV         R7,R5
    00000740 6253                   MOV         R5,R2
    00000742 4208                   SHLL2       R2
    00000744 6023                   MOV         R2,R0
    00000746 056E                   MOV.L       @(R0,R6),R5
    00000748 D38D                   MOV.L       L165+24,R3 ; _CRE_FLG
    0000074A 430B                   JSR         @R3
    0000074C 0009                   NOP
    0000074E 6203                   MOV         R0,R2
    00000750 2228                   TST         R2,R2
    00000752 8902                   BT          L88
    00000754 E2FF                   MOV         #-1,R2     ; H'FFFFFFFF
    00000756 A165                   BRA         L83
    00000758 0009                   NOP
    0000075A              L88:
    0000075A E20A                   MOV         #10,R2     ; H'0000000A
    0000075C 1F25                   MOV.L       R2,@(20,R15)
    0000075E E60B                   MOV         #11,R6     ; H'0000000B
    00000760 62F3                   MOV         R15,R2
    00000762 7214                   ADD         #20,R2
    00000764 1261                   MOV.L       R6,@(4,R2)
    00000766 E22B                   MOV         #43,R2     ; H'0000002B
    00000768 66F3                   MOV         R15,R6
    0000076A 7614                   ADD         #20,R6
    0000076C 1622                   MOV.L       R2,@(8,R6)
    0000076E E62C                   MOV         #44,R6     ; H'0000002C
    00000770 62F3                   MOV         R15,R2
    00000772 7214                   ADD         #20,R2
    00000774 1263                   MOV.L       R6,@(12,R2)
    00000776 E203                   MOV         #3,R2      ; H'00000003
    00000778 D382                   MOV.L       L165+28,R3 ; __$dad_zc_mbx
    0000077A 1F3A                   MOV.L       R3,@(40,R15)
    0000077C 57F9                   MOV.L       @(36,R15),R7
    0000077E 6673                   MOV         R7,R6
    00000780 4608                   SHLL2       R6
    00000782 4600                   SHLL        R6
    00000784 7604                   ADD         #4,R6
    00000786 53FA                   MOV.L       @(40,R15),R3
    00000788 336C                   ADD         R6,R3
    0000078A 1F3A                   MOV.L       R3,@(40,R15)
    0000078C 66F3                   MOV         R15,R6
    0000078E 7614                   ADD         #20,R6
    00000790 6473                   MOV         R7,R4
    00000792 6543                   MOV         R4,R5
    00000794 4508                   SHLL2       R5
    00000796 6053                   MOV         R5,R0
    00000798 046E                   MOV.L       @(R0,R6),R4
    0000079A 6643                   MOV         R4,R6
    0000079C 6423                   MOV         R2,R4
    0000079E 55FA                   MOV.L       @(40,R15),R5
    000007A0 D375                   MOV.L       L165+16,R3 ; _CRE_MBX
    000007A2 430B                   JSR         @R3
    000007A4 0009                   NOP
    000007A6 6203                   MOV         R0,R2
    000007A8 2228                   TST         R2,R2
    000007AA 8902                   BT          L90
    000007AC E2FF                   MOV         #-1,R2     ; H'FFFFFFFF
    000007AE A139                   BRA         L83
    000007B0 0009                   NOP
    000007B2              L90:
    000007B2 E617                   MOV         #23,R6     ; H'00000017
    000007B4 1F65                   MOV.L       R6,@(20,R15)
    000007B6 E218                   MOV         #24,R2     ; H'00000018
    000007B8 66F3                   MOV         R15,R6
    000007BA 7614                   ADD         #20,R6
    000007BC 1621                   MOV.L       R2,@(4,R6)
    000007BE E611                   MOV         #17,R6     ; H'00000011
    000007C0 62F3                   MOV         R15,R2
    000007C2 7214                   ADD         #20,R2
    000007C4 1262                   MOV.L       R6,@(8,R2)
    000007C6 E212                   MOV         #18,R2     ; H'00000012
    000007C8 66F3                   MOV         R15,R6
    000007CA 7614                   ADD         #20,R6
    000007CC 1623                   MOV.L       R2,@(12,R6)
    000007CE D46E                   MOV.L       L165+32,R4 ; __$dad_spn_evf
    000007D0 57F9                   MOV.L       @(36,R15),R7
    000007D2 6273                   MOV         R7,R2
    000007D4 4208                   SHLL2       R2
    000007D6 4200                   SHLL        R2
    000007D8 7204                   ADD         #4,R2
    000007DA 342C                   ADD         R2,R4
    000007DC 66F3                   MOV         R15,R6
    000007DE 7614                   ADD         #20,R6
    000007E0 6273                   MOV         R7,R2
    000007E2 4208                   SHLL2       R2
    000007E4 6023                   MOV         R2,R0
    000007E6 056E                   MOV.L       @(R0,R6),R5
    000007E8 D365                   MOV.L       L165+24,R3 ; _CRE_FLG
    000007EA 430B                   JSR         @R3
    000007EC 0009                   NOP
    000007EE 6203                   MOV         R0,R2
    000007F0 2228                   TST         R2,R2
    000007F2 8902                   BT          L92
    000007F4 E2FF                   MOV         #-1,R2     ; H'FFFFFFFF
    000007F6 A115                   BRA         L83
    000007F8 0009                   NOP
    000007FA              L92:
    000007FA E619                   MOV         #25,R6     ; H'00000019
    000007FC 1F65                   MOV.L       R6,@(20,R15)
    000007FE E21A                   MOV         #26,R2     ; H'0000001A
    00000800 66F3                   MOV         R15,R6
    00000802 7614                   ADD         #20,R6
    00000804 1621                   MOV.L       R2,@(4,R6)
    00000806 E627                   MOV         #39,R6     ; H'00000027
    00000808 62F3                   MOV         R15,R2
    0000080A 7214                   ADD         #20,R2
    0000080C 1262                   MOV.L       R6,@(8,R2)
    0000080E E228                   MOV         #40,R2     ; H'00000028
    00000810 66F3                   MOV         R15,R6
    00000812 7614                   ADD         #20,R6
    00000814 1623                   MOV.L       R2,@(12,R6)
    00000816 D45D                   MOV.L       L165+36,R4 ; __$dad_afv_evf
    00000818 57F9                   MOV.L       @(36,R15),R7
    0000081A 6273                   MOV         R7,R2
    0000081C 4208                   SHLL2       R2
    0000081E 4200                   SHLL        R2
    00000820 7204                   ADD         #4,R2
    00000822 342C                   ADD         R2,R4
    00000824 66F3                   MOV         R15,R6
    00000826 7614                   ADD         #20,R6
    00000828 6273                   MOV         R7,R2
    0000082A 4208                   SHLL2       R2
    0000082C 6023                   MOV         R2,R0
    0000082E 056E                   MOV.L       @(R0,R6),R5
    00000830 D353                   MOV.L       L165+24,R3 ; _CRE_FLG
    00000832 430B                   JSR         @R3
    00000834 0009                   NOP
    00000836 6203                   MOV         R0,R2
    00000838 2228                   TST         R2,R2
    0000083A 8902                   BT          L94
    0000083C E2FF                   MOV         #-1,R2     ; H'FFFFFFFF
    0000083E A0F1                   BRA         L83
    00000840 0009                   NOP
    00000842              L94:
    00000842 E615                   MOV         #21,R6     ; H'00000015
    00000844 1F65                   MOV.L       R6,@(20,R15)
    00000846 E216                   MOV         #22,R2     ; H'00000016
    00000848 66F3                   MOV         R15,R6
    0000084A 7614                   ADD         #20,R6
    0000084C 1621                   MOV.L       R2,@(4,R6)
    0000084E E60F                   MOV         #15,R6     ; H'0000000F
    00000850 62F3                   MOV         R15,R2
    00000852 7214                   ADD         #20,R2
    00000854 1262                   MOV.L       R6,@(8,R2)
    00000856 E210                   MOV         #16,R2     ; H'00000010
    00000858 66F3                   MOV         R15,R6
    0000085A 7614                   ADD         #20,R6
    0000085C 1623                   MOV.L       R2,@(12,R6)
    0000085E D44C                   MOV.L       L165+40,R4 ; __$dad_mrd_evf
    00000860 57F9                   MOV.L       @(36,R15),R7
    00000862 6273                   MOV         R7,R2
    00000864 4208                   SHLL2       R2
    00000866 4200                   SHLL        R2
    00000868 7204                   ADD         #4,R2
    0000086A 342C                   ADD         R2,R4
    0000086C 62F3                   MOV         R15,R2
    0000086E 7214                   ADD         #20,R2
    00000870 6673                   MOV         R7,R6
    00000872 4608                   SHLL2       R6
    00000874 6063                   MOV         R6,R0
    00000876 052E                   MOV.L       @(R0,R2),R5
    00000878 D341                   MOV.L       L165+24,R3 ; _CRE_FLG
    0000087A 430B                   JSR         @R3
    0000087C 0009                   NOP
    0000087E 6203                   MOV         R0,R2
    00000880 2228                   TST         R2,R2
    00000882 8902                   BT          L96
    00000884 E2FF                   MOV         #-1,R2     ; H'FFFFFFFF
    00000886 A0CD                   BRA         L83
    00000888 0009                   NOP
    0000088A              L96:
    0000088A E61D                   MOV         #29,R6     ; H'0000001D
    0000088C 1F65                   MOV.L       R6,@(20,R15)
    0000088E E21E                   MOV         #30,R2     ; H'0000001E
    00000890 66F3                   MOV         R15,R6
    00000892 7614                   ADD         #20,R6
    00000894 1621                   MOV.L       R2,@(4,R6)
    00000896 E62B                   MOV         #43,R6     ; H'0000002B
    00000898 62F3                   MOV         R15,R2
    0000089A 7214                   ADD         #20,R2
    0000089C 1262                   MOV.L       R6,@(8,R2)
    0000089E E22C                   MOV         #44,R2     ; H'0000002C
    000008A0 66F3                   MOV         R15,R6
    000008A2 7614                   ADD         #20,R6
    000008A4 1623                   MOV.L       R2,@(12,R6)
    000008A6 D43B                   MOV.L       L165+44,R4 ; __$dad_mwr_evf
    000008A8 57F9                   MOV.L       @(36,R15),R7
    000008AA 6673                   MOV         R7,R6
    000008AC 6263                   MOV         R6,R2
    000008AE 4208                   SHLL2       R2
    000008B0 4200                   SHLL        R2
    000008B2 7204                   ADD         #4,R2
    000008B4 342C                   ADD         R2,R4
    000008B6 66F3                   MOV         R15,R6
    000008B8 7614                   ADD         #20,R6
    000008BA 6573                   MOV         R7,R5
    000008BC 6253                   MOV         R5,R2
    000008BE 4208                   SHLL2       R2
    000008C0 6023                   MOV         R2,R0
    000008C2 056E                   MOV.L       @(R0,R6),R5
    000008C4 D32E                   MOV.L       L165+24,R3 ; _CRE_FLG
    000008C6 430B                   JSR         @R3
    000008C8 0009                   NOP
    000008CA 6203                   MOV         R0,R2
    000008CC 2228                   TST         R2,R2
    000008CE 8902                   BT          L98
    000008D0 E2FF                   MOV         #-1,R2     ; H'FFFFFFFF
    000008D2 A0A7                   BRA         L83
    000008D4 0009                   NOP
    000008D6              L98:
    000008D6 E61F                   MOV         #31,R6     ; H'0000001F
    000008D8 1F65                   MOV.L       R6,@(20,R15)
    000008DA E220                   MOV         #32,R2     ; H'00000020
    000008DC 66F3                   MOV         R15,R6
    000008DE 7614                   ADD         #20,R6
    000008E0 1621                   MOV.L       R2,@(4,R6)
    000008E2 E62D                   MOV         #45,R6     ; H'0000002D
    000008E4 1F65                   MOV.L       R6,@(20,R15)
    000008E6 E22E                   MOV         #46,R2     ; H'0000002E
    000008E8 66F3                   MOV         R15,R6
    000008EA 7614                   ADD         #20,R6
    000008EC 1621                   MOV.L       R2,@(4,R6)
    000008EE D42A                   MOV.L       L165+48,R4 ; __$dad_stam_evf
    000008F0 57F9                   MOV.L       @(36,R15),R7
    000008F2 6673                   MOV         R7,R6
    000008F4 6263                   MOV         R6,R2
    000008F6 4208                   SHLL2       R2
    000008F8 4200                   SHLL        R2
    000008FA 7204                   ADD         #4,R2
    000008FC 342C                   ADD         R2,R4
    000008FE 66F3                   MOV         R15,R6
    00000900 7614                   ADD         #20,R6
    00000902 6273                   MOV         R7,R2
    00000904 4208                   SHLL2       R2
    00000906 6023                   MOV         R2,R0
    00000908 056E                   MOV.L       @(R0,R6),R5
    0000090A D31D                   MOV.L       L165+24,R3 ; _CRE_FLG
    0000090C 430B                   JSR         @R3
    0000090E 0009                   NOP
    00000910 6203                   MOV         R0,R2
    00000912 2228                   TST         R2,R2
    00000914 8902                   BT          L100
    00000916 E2FF                   MOV         #-1,R2     ; H'FFFFFFFF
    00000918 A084                   BRA         L83
    0000091A 0009                   NOP
    0000091C              L100:
    0000091C E621                   MOV         #33,R6     ; H'00000021
    0000091E 1F65                   MOV.L       R6,@(20,R15)
    00000920 E222                   MOV         #34,R2     ; H'00000022
    00000922 66F3                   MOV         R15,R6
    00000924 7614                   ADD         #20,R6
    00000926 1621                   MOV.L       R2,@(4,R6)
    00000928 E62F                   MOV         #47,R6     ; H'0000002F
    0000092A 62F3                   MOV         R15,R2
    0000092C 7214                   ADD         #20,R2
    0000092E 1262                   MOV.L       R6,@(8,R2)
    00000930 E230                   MOV         #48,R2     ; H'00000030
    00000932 66F3                   MOV         R15,R6
    00000934 7614                   ADD         #20,R6
    00000936 1623                   MOV.L       R2,@(12,R6)
    00000938 D418                   MOV.L       L165+52,R4 ; __$dad_stpm_evf
    0000093A 57F9                   MOV.L       @(36,R15),R7
    0000093C 6673                   MOV         R7,R6
    0000093E 6263                   MOV         R6,R2
    00000940 4208                   SHLL2       R2
    00000942 4200                   SHLL        R2
    00000944 7204                   ADD         #4,R2
    00000946 342C                   ADD         R2,R4
    00000948 62F3                   MOV         R15,R2
    0000094A 7214                   ADD         #20,R2
    0000094C 6573                   MOV         R7,R5
    0000094E 6653                   MOV         R5,R6
    00000950 4608                   SHLL2       R6
    00000952 6063                   MOV         R6,R0
    00000954 052E                   MOV.L       @(R0,R2),R5
    00000956 D30A                   MOV.L       L165+24,R3 ; _CRE_FLG
    00000958 430B                   JSR         @R3
    0000095A 0009                   NOP
    0000095C 6203                   MOV         R0,R2
    0000095E 2228                   TST         R2,R2
    00000960 891E                   BT          L102
    00000962 E2FF                   MOV         #-1,R2     ; H'FFFFFFFF
    00000964 A05E                   BRA         L83
    00000966 0009                   NOP
    00000968              L165:
    00000968 <00000000>             .DATA.L     _verify_puti
    0000096C <00000000>             .DATA.L     __$mpl0
    00000970 <00000000>             .DATA.L     _MPL_ADR
    00000974 <00000000>             .DATA.L     __$dad_afv_mbx
    00000978 <00000000>             .DATA.L     _CRE_MBX
    0000097C <00000000>             .DATA.L     __$dad_boot_evf
    00000980 <00000000>             .DATA.L     _CRE_FLG
    00000984 <00000000>             .DATA.L     __$dad_zc_mbx
    00000988 <00000000>             .DATA.L     __$dad_spn_evf
    0000098C <00000000>             .DATA.L     __$dad_afv_evf
    00000990 <00000000>             .DATA.L     __$dad_mrd_evf
    00000994 <00000000>             .DATA.L     __$dad_mwr_evf
    00000998 <00000000>             .DATA.L     __$dad_stam_evf
    0000099C <00000000>             .DATA.L     __$dad_stpm_evf
    000009A0              L102:
    000009A0 D2BA                   MOV.L       L167+6,R2  ; __$dad_int_tsk
    000009A2 6323                   MOV         R2,R3
    000009A4 2F32                   MOV.L       R3,@R15
    000009A6 D5BA                   MOV.L       L167+10,R5 ; _dadi_tsk_pri
    000009A8 57F9                   MOV.L       @(36,R15),R7
    000009AA 6273                   MOV         R7,R2
    000009AC 4208                   SHLL2       R2
    000009AE 6023                   MOV         R2,R0
    000009B0 065E                   MOV.L       @(R0,R5),R6
    000009B2 6363                   MOV         R6,R3
    000009B4 1F32                   MOV.L       R3,@(8,R15)
    000009B6 93AA                   MOV.W       L166,R3    ; H'1000
    000009B8 6633                   MOV         R3,R6
    000009BA 6363                   MOV         R6,R3
    000009BC 1F31                   MOV.L       R3,@(4,R15)
    000009BE E200                   MOV         #0,R2      ; H'00000000
    000009C0 6323                   MOV         R2,R3
    000009C2 1F33                   MOV.L       R3,@(12,R15)
    000009C4 D6B3                   MOV.L       L167+14,R6 ; _dad_ds
    000009C6 5261                   MOV.L       @(4,R6),R2
    000009C8 6323                   MOV         R2,R3
    000009CA 1F34                   MOV.L       R3,@(16,R15)
    000009CC D4B2                   MOV.L       L167+18,R4 ; _dadi_tsk
    000009CE 6673                   MOV         R7,R6
    000009D0 6263                   MOV         R6,R2
    000009D2 4208                   SHLL2       R2
    000009D4 4200                   SHLL        R2
    000009D6 7204                   ADD         #4,R2
    000009D8 342C                   ADD         R2,R4
    000009DA 6673                   MOV         R7,R6
    000009DC 6263                   MOV         R6,R2
    000009DE 4208                   SHLL2       R2
    000009E0 D3AE                   MOV.L       L167+22,R3 ; _dadi_tsk_id
    000009E2 6023                   MOV         R2,R0
    000009E4 053E                   MOV.L       @(R0,R3),R5
    000009E6 66F3                   MOV         R15,R6
    000009E8 D3AD                   MOV.L       L167+26,R3 ; _CRE_TSK
    000009EA 430B                   JSR         @R3
    000009EC 0009                   NOP
    000009EE 6203                   MOV         R0,R2
    000009F0 2228                   TST         R2,R2
    000009F2 8902                   BT          L104
    000009F4 E2FF                   MOV         #-1,R2     ; H'FFFFFFFF
    000009F6 A015                   BRA         L83
    000009F8 0009                   NOP
    000009FA              L104:
    000009FA 57F9                   MOV.L       @(36,R15),R7
    000009FC 6673                   MOV         R7,R6
    000009FE D5A6                   MOV.L       L167+18,R5 ; _dadi_tsk
    00000A00 6273                   MOV         R7,R2
    00000A02 4208                   SHLL2       R2
    00000A04 4200                   SHLL        R2
    00000A06 7204                   ADD         #4,R2
    00000A08 6023                   MOV         R2,R0
    00000A0A 075E                   MOV.L       @(R0,R5),R7
    00000A0C 6563                   MOV         R6,R5
    00000A0E 6473                   MOV         R7,R4
    00000A10 D3A4                   MOV.L       L167+30,R3 ; _STA_TSK
    00000A12 430B                   JSR         @R3
    00000A14 0009                   NOP
    00000A16 6203                   MOV         R0,R2
    00000A18 2228                   TST         R2,R2
    00000A1A 8902                   BT          L106
    00000A1C E2FF                   MOV         #-1,R2     ; H'FFFFFFFF
    00000A1E A001                   BRA         L83
    00000A20 0009                   NOP
    00000A22              L106:
    00000A22 E200                   MOV         #0,R2      ; H'00000000
    00000A24              L83:
    00000A24 6023                   MOV         R2,R0
    00000A26 7F2C                   ADD         #44,R15
    00000A28 4F26                   LDS.L       @R15+,PR
    00000A2A 000B                   RTS
    00000A2C 0009                   NOP
    00000A2E              _wai_span_flg:                   ; function: wai_span_flg
                                                           ; frame size=12
    00000A2E 4F22                   STS.L       PR,@-R15
    00000A30 7FF8                   ADD         #-8,R15
    00000A32 6643                   MOV         R4,R6
    00000A34 E201                   MOV         #1,R2      ; H'00000001
    00000A36 E500                   MOV         #0,R5      ; H'00000000
    00000A38 225B                   OR          R5,R2
    00000A3A E504                   MOV         #4,R5      ; H'00000004
    00000A3C 9368                   MOV.W       L166+2,R3  ; H'0203
    00000A3E 6733                   MOV         R3,R7
    00000A40 6423                   MOV         R2,R4
    00000A42 245B                   OR          R5,R4
    00000A44 65F3                   MOV         R15,R5
    00000A46 7504                   ADD         #4,R5
    00000A48 6263                   MOV         R6,R2
    00000A4A 4208                   SHLL2       R2
    00000A4C 4200                   SHLL        R2
    00000A4E 7204                   ADD         #4,R2
    00000A50 D395                   MOV.L       L167+34,R3 ; __$dad_spn_evf
    00000A52 6023                   MOV         R2,R0
    00000A54 063E                   MOV.L       @(R0,R3),R6
    00000A56 D295                   MOV.L       L167+38,R2 ; _dad_tmout
    00000A58 2F22                   MOV.L       R2,@R15
    00000A5A D395                   MOV.L       L167+42,R3 ; _WAI_FLG
    00000A5C 430B                   JSR         @R3
    00000A5E 0009                   NOP
    00000A60 6203                   MOV         R0,R2
    00000A62 2228                   TST         R2,R2
    00000A64 8902                   BT          L109
    00000A66 E2FF                   MOV         #-1,R2     ; H'FFFFFFFF
    00000A68 A001                   BRA         L110
    00000A6A 0009                   NOP
    00000A6C              L109:
    00000A6C E200                   MOV         #0,R2      ; H'00000000
    00000A6E              L110:
    00000A6E 6023                   MOV         R2,R0
    00000A70 7F08                   ADD         #8,R15
    00000A72 4F26                   LDS.L       @R15+,PR
    00000A74 000B                   RTS
    00000A76 0009                   NOP
    00000A78              _wai_afv_flg:                    ; function: wai_afv_flg
                                                           ; frame size=12
    00000A78 4F22                   STS.L       PR,@-R15
    00000A7A 7FF8                   ADD         #-8,R15
    00000A7C 6643                   MOV         R4,R6
    00000A7E E201                   MOV         #1,R2      ; H'00000001
    00000A80 E500                   MOV         #0,R5      ; H'00000000
    00000A82 225B                   OR          R5,R2
    00000A84 E504                   MOV         #4,R5      ; H'00000004
    00000A86 9344                   MOV.W       L166+4,R3  ; H'0204
    00000A88 6733                   MOV         R3,R7
    00000A8A 6423                   MOV         R2,R4
    00000A8C 245B                   OR          R5,R4
    00000A8E 65F3                   MOV         R15,R5
    00000A90 7504                   ADD         #4,R5
    00000A92 6263                   MOV         R6,R2
    00000A94 4208                   SHLL2       R2
    00000A96 4200                   SHLL        R2
    00000A98 7204                   ADD         #4,R2
    00000A9A D386                   MOV.L       L167+46,R3 ; __$dad_afv_evf
    00000A9C 6023                   MOV         R2,R0
    00000A9E 063E                   MOV.L       @(R0,R3),R6
    00000AA0 D282                   MOV.L       L167+38,R2 ; _dad_tmout
    00000AA2 2F22                   MOV.L       R2,@R15
    00000AA4 D382                   MOV.L       L167+42,R3 ; _WAI_FLG
    00000AA6 430B                   JSR         @R3
    00000AA8 0009                   NOP
    00000AAA 6203                   MOV         R0,R2
    00000AAC 2228                   TST         R2,R2
    00000AAE 8902                   BT          L113
    00000AB0 E2FF                   MOV         #-1,R2     ; H'FFFFFFFF
    00000AB2 A001                   BRA         L114
    00000AB4 0009                   NOP
    00000AB6              L113:
    00000AB6 E200                   MOV         #0,R2      ; H'00000000
    00000AB8              L114:
    00000AB8 6023                   MOV         R2,R0
    00000ABA 7F08                   ADD         #8,R15
    00000ABC 4F26                   LDS.L       @R15+,PR
    00000ABE 000B                   RTS
    00000AC0 0009                   NOP
    00000AC2              _wai_afv_msg:                    ; function: wai_afv_msg
                                                           ; frame size=28
    00000AC2 2FE6                   MOV.L       R14,@-R15
    00000AC4 4F22                   STS.L       PR,@-R15
    00000AC6 7FEC                   ADD         #-20,R15
    00000AC8 6E43                   MOV         R4,R14
    00000ACA D67B                   MOV.L       L167+50,R6 ; __$dad_afv_mbx
    00000ACC 5261                   MOV.L       @(4,R6),R2
    00000ACE 6423                   MOV         R2,R4
    00000AD0 65F3                   MOV         R15,R5
    00000AD2 7510                   ADD         #16,R5
    00000AD4 E6FF                   MOV         #-1,R6     ; H'FFFFFFFF
    00000AD6 D379                   MOV.L       L167+54,R3 ; _v4_trcv_mbx
    00000AD8 430B                   JSR         @R3
    00000ADA 0009                   NOP
    00000ADC 6203                   MOV         R0,R2
    00000ADE 2228                   TST         R2,R2
    00000AE0 8902                   BT          L117
    00000AE2 E2FF                   MOV         #-1,R2     ; H'FFFFFFFF
    00000AE4 A019                   BRA         L118
    00000AE6 0009                   NOP
    00000AE8              L117:
    00000AE8 64F3                   MOV         R15,R4
    00000AEA 53F4                   MOV.L       @(16,R15),R3
    00000AEC 6533                   MOV         R3,R5
    00000AEE 7504                   ADD         #4,R5
    00000AF0 E610                   MOV         #16,R6     ; H'00000010
    00000AF2 D373                   MOV.L       L167+58,R3 ; _memcpy
    00000AF4 430B                   JSR         @R3
    00000AF6 0009                   NOP
    00000AF8 E401                   MOV         #1,R4      ; H'00000001
    00000AFA 55F4                   MOV.L       @(16,R15),R5
    00000AFC D371                   MOV.L       L167+62,R3 ; _v4_rel_mpl
    00000AFE 430B                   JSR         @R3
    00000B00 0009                   NOP
    00000B02 6203                   MOV         R0,R2
    00000B04 2228                   TST         R2,R2
    00000B06 8905                   BT          L120
    00000B08 E2FF                   MOV         #-1,R2     ; H'FFFFFFFF
    00000B0A A006                   BRA         L118
    00000B0C 0009                   NOP
    00000B0E              L166:
    00000B0E 1000                   .DATA.W     H'1000
    00000B10 0203                   .DATA.W     H'0203
    00000B12 0204                   .DATA.W     H'0204
    00000B14              L120:
    00000B14 53F2                   MOV.L       @(8,R15),R3
    00000B16 2E32                   MOV.L       R3,@R14
    00000B18 E200                   MOV         #0,R2      ; H'00000000
    00000B1A              L118:
    00000B1A 6023                   MOV         R2,R0
    00000B1C 7F14                   ADD         #20,R15
    00000B1E 4F26                   LDS.L       @R15+,PR
    00000B20 6EF6                   MOV.L       @R15+,R14
    00000B22 000B                   RTS
    00000B24 0009                   NOP
    00000B26              _wai_init_boot_flg:              ; function: wai_init_boot_flg
                                                           ; frame size=16
    00000B26 2FE6                   MOV.L       R14,@-R15
    00000B28 4F22                   STS.L       PR,@-R15
    00000B2A 7FF8                   ADD         #-8,R15
    00000B2C 6643                   MOV         R4,R6
    00000B2E E401                   MOV         #1,R4      ; H'00000001
    00000B30 E700                   MOV         #0,R7      ; H'00000000
    00000B32 6243                   MOV         R4,R2
    00000B34 227B                   OR          R7,R2
    00000B36 EE04                   MOV         #4,R14     ; H'00000004
    00000B38 6753                   MOV         R5,R7
    00000B3A 6423                   MOV         R2,R4
    00000B3C 24EB                   OR          R14,R4
    00000B3E 65F3                   MOV         R15,R5
    00000B40 7504                   ADD         #4,R5
    00000B42 6263                   MOV         R6,R2
    00000B44 4208                   SHLL2       R2
    00000B46 4200                   SHLL        R2
    00000B48 7204                   ADD         #4,R2
    00000B4A D35F                   MOV.L       L167+66,R3 ; __$dad_boot_evf
    00000B4C 6023                   MOV         R2,R0
    00000B4E 063E                   MOV.L       @(R0,R3),R6
    00000B50 D256                   MOV.L       L167+38,R2 ; _dad_tmout
    00000B52 2F22                   MOV.L       R2,@R15
    00000B54 D356                   MOV.L       L167+42,R3 ; _WAI_FLG
    00000B56 430B                   JSR         @R3
    00000B58 0009                   NOP
    00000B5A 6203                   MOV         R0,R2
    00000B5C 2228                   TST         R2,R2
    00000B5E 8902                   BT          L123
    00000B60 E2FF                   MOV         #-1,R2     ; H'FFFFFFFF
    00000B62 A001                   BRA         L124
    00000B64 0009                   NOP
    00000B66              L123:
    00000B66 E200                   MOV         #0,R2      ; H'00000000
    00000B68              L124:
    00000B68 6023                   MOV         R2,R0
    00000B6A 7F08                   ADD         #8,R15
    00000B6C 4F26                   LDS.L       @R15+,PR
    00000B6E 6EF6                   MOV.L       @R15+,R14
    00000B70 000B                   RTS
    00000B72 0009                   NOP
    00000B74              _wai_chg_boot_flg:               ; function: wai_chg_boot_flg
                                                           ; frame size=16
    00000B74 2FE6                   MOV.L       R14,@-R15
    00000B76 4F22                   STS.L       PR,@-R15
    00000B78 7FF8                   ADD         #-8,R15
    00000B7A 6643                   MOV         R4,R6
    00000B7C E401                   MOV         #1,R4      ; H'00000001
    00000B7E E700                   MOV         #0,R7      ; H'00000000
    00000B80 6243                   MOV         R4,R2
    00000B82 227B                   OR          R7,R2
    00000B84 EE04                   MOV         #4,R14     ; H'00000004
    00000B86 6753                   MOV         R5,R7
    00000B88 6423                   MOV         R2,R4
    00000B8A 24EB                   OR          R14,R4
    00000B8C 65F3                   MOV         R15,R5
    00000B8E 7504                   ADD         #4,R5
    00000B90 6263                   MOV         R6,R2
    00000B92 4208                   SHLL2       R2
    00000B94 4200                   SHLL        R2
    00000B96 7204                   ADD         #4,R2
    00000B98 D34B                   MOV.L       L167+66,R3 ; __$dad_boot_evf
    00000B9A 6023                   MOV         R2,R0
    00000B9C 063E                   MOV.L       @(R0,R3),R6
    00000B9E D243                   MOV.L       L167+38,R2 ; _dad_tmout
    00000BA0 2F22                   MOV.L       R2,@R15
    00000BA2 D343                   MOV.L       L167+42,R3 ; _WAI_FLG
    00000BA4 430B                   JSR         @R3
    00000BA6 0009                   NOP
    00000BA8 6203                   MOV         R0,R2
    00000BAA 2228                   TST         R2,R2
    00000BAC 8902                   BT          L127
    00000BAE E2FF                   MOV         #-1,R2     ; H'FFFFFFFF
    00000BB0 A001                   BRA         L128
    00000BB2 0009                   NOP
    00000BB4              L127:
    00000BB4 E200                   MOV         #0,R2      ; H'00000000
    00000BB6              L128:
    00000BB6 6023                   MOV         R2,R0
    00000BB8 7F08                   ADD         #8,R15
    00000BBA 4F26                   LDS.L       @R15+,PR
    00000BBC 6EF6                   MOV.L       @R15+,R14
    00000BBE 000B                   RTS
    00000BC0 0009                   NOP
    00000BC2              _wai_zero_flg:                   ; function: wai_zero_flg
                                                           ; frame size=28
    00000BC2 4F22                   STS.L       PR,@-R15
    00000BC4 7FE8                   ADD         #-24,R15
    00000BC6 6743                   MOV         R4,R7
    00000BC8 1F75                   MOV.L       R7,@(20,R15)
    00000BCA D540                   MOV.L       L167+70,R5 ; __$dad_zc_mbx
    00000BCC 6273                   MOV         R7,R2
    00000BCE 4208                   SHLL2       R2
    00000BD0 4200                   SHLL        R2
    00000BD2 7204                   ADD         #4,R2
    00000BD4 6023                   MOV         R2,R0
    00000BD6 065E                   MOV.L       @(R0,R5),R6
    00000BD8 6263                   MOV         R6,R2
    00000BDA 65F3                   MOV         R15,R5
    00000BDC 7510                   ADD         #16,R5
    00000BDE E6FF                   MOV         #-1,R6     ; H'FFFFFFFF
    00000BE0 6423                   MOV         R2,R4
    00000BE2 D336                   MOV.L       L167+54,R3 ; _v4_trcv_mbx
    00000BE4 430B                   JSR         @R3
    00000BE6 0009                   NOP
    00000BE8 6203                   MOV         R0,R2
    00000BEA 2228                   TST         R2,R2
    00000BEC 8902                   BT          L131
    00000BEE E2FF                   MOV         #-1,R2     ; H'FFFFFFFF
    00000BF0 A01F                   BRA         L132
    00000BF2 0009                   NOP
    00000BF4              L131:
    00000BF4 64F3                   MOV         R15,R4
    00000BF6 53F4                   MOV.L       @(16,R15),R3
    00000BF8 6533                   MOV         R3,R5
    00000BFA 7504                   ADD         #4,R5
    00000BFC E610                   MOV         #16,R6     ; H'00000010
    00000BFE D330                   MOV.L       L167+58,R3 ; _memcpy
    00000C00 430B                   JSR         @R3
    00000C02 0009                   NOP
    00000C04 E401                   MOV         #1,R4      ; H'00000001
    00000C06 55F4                   MOV.L       @(16,R15),R5
    00000C08 D32E                   MOV.L       L167+62,R3 ; _v4_rel_mpl
    00000C0A 430B                   JSR         @R3
    00000C0C 0009                   NOP
    00000C0E 6203                   MOV         R0,R2
    00000C10 2228                   TST         R2,R2
    00000C12 8902                   BT          L134
    00000C14 E2FF                   MOV         #-1,R2     ; H'FFFFFFFF
    00000C16 A00C                   BRA         L132
    00000C18 0009                   NOP
    00000C1A              L134:
    00000C1A 57F5                   MOV.L       @(20,R15),R7
    00000C1C 53F2                   MOV.L       @(8,R15),R3
    00000C1E 3730                   CMP/EQ      R3,R7
    00000C20 8B03                   BF          L136
    00000C22 9330                   MOV.W       L167,R3    ; H'0304
    00000C24 51F3                   MOV.L       @(12,R15),R1
    00000C26 3130                   CMP/EQ      R3,R1
    00000C28 8902                   BT          L137
    00000C2A              L136:
    00000C2A E2FF                   MOV         #-1,R2     ; H'FFFFFFFF
    00000C2C A001                   BRA         L132
    00000C2E 0009                   NOP
    00000C30              L137:
    00000C30 E200                   MOV         #0,R2      ; H'00000000
    00000C32              L132:
    00000C32 6023                   MOV         R2,R0
    00000C34 7F18                   ADD         #24,R15
    00000C36 4F26                   LDS.L       @R15+,PR
    00000C38 000B                   RTS
    00000C3A 0009                   NOP
    00000C3C              _wai_mem_read_flg:               ; function: wai_mem_read_flg
                                                           ; frame size=12
    00000C3C 4F22                   STS.L       PR,@-R15
    00000C3E 7FF8                   ADD         #-8,R15
    00000C40 6643                   MOV         R4,R6
    00000C42 E201                   MOV         #1,R2      ; H'00000001
    00000C44 E500                   MOV         #0,R5      ; H'00000000
    00000C46 225B                   OR          R5,R2
    00000C48 E504                   MOV         #4,R5      ; H'00000004
    00000C4A 931D                   MOV.W       L167+2,R3  ; H'0305
    00000C4C 6733                   MOV         R3,R7
    00000C4E 6423                   MOV         R2,R4
    00000C50 245B                   OR          R5,R4
    00000C52 65F3                   MOV         R15,R5
    00000C54 7504                   ADD         #4,R5
    00000C56 6263                   MOV         R6,R2
    00000C58 4208                   SHLL2       R2
    00000C5A 4200                   SHLL        R2
    00000C5C 7204                   ADD         #4,R2
    00000C5E D31C                   MOV.L       L167+74,R3 ; __$dad_mrd_evf
    00000C60 6023                   MOV         R2,R0
    00000C62 063E                   MOV.L       @(R0,R3),R6
    00000C64 D211                   MOV.L       L167+38,R2 ; _dad_tmout
    00000C66 2F22                   MOV.L       R2,@R15
    00000C68 D311                   MOV.L       L167+42,R3 ; _WAI_FLG
    00000C6A 430B                   JSR         @R3
    00000C6C 0009                   NOP
    00000C6E 6203                   MOV         R0,R2
    00000C70 2228                   TST         R2,R2
    00000C72 8902                   BT          L140
    00000C74 E2FF                   MOV         #-1,R2     ; H'FFFFFFFF
    00000C76 A001                   BRA         L141
    00000C78 0009                   NOP
    00000C7A              L140:
    00000C7A E200                   MOV         #0,R2      ; H'00000000
    00000C7C              L141:
    00000C7C 6023                   MOV         R2,R0
    00000C7E 7F08                   ADD         #8,R15
    00000C80 4F26                   LDS.L       @R15+,PR
    00000C82 000B                   RTS
    00000C84 0009                   NOP
    00000C86              L167:
    00000C86 0304                   .DATA.W     H'0304
    00000C88 0305                   .DATA.W     H'0305
    00000C8A 00000002               .RES.W      1
    00000C8C <00000000>             .DATA.L     __$dad_int_tsk
    00000C90 <00000000>             .DATA.L     _dadi_tsk_pri
    00000C94 <00000000>             .DATA.L     _dad_ds
    00000C98 <00000000>             .DATA.L     _dadi_tsk
    00000C9C <00000000>             .DATA.L     _dadi_tsk_id
    00000CA0 <00000000>             .DATA.L     _CRE_TSK
    00000CA4 <00000000>             .DATA.L     _STA_TSK
    00000CA8 <00000000>             .DATA.L     __$dad_spn_evf
    00000CAC <00000000>             .DATA.L     _dad_tmout
    00000CB0 <00000000>             .DATA.L     _WAI_FLG
    00000CB4 <00000000>             .DATA.L     __$dad_afv_evf
    00000CB8 <00000000>             .DATA.L     __$dad_afv_mbx
    00000CBC <00000000>             .DATA.L     _v4_trcv_mbx
    00000CC0 <00000000>             .DATA.L     _memcpy
    00000CC4 <00000000>             .DATA.L     _v4_rel_mpl
    00000CC8 <00000000>             .DATA.L     __$dad_boot_evf
    00000CCC <00000000>             .DATA.L     __$dad_zc_mbx
    00000CD0 <00000000>             .DATA.L     __$dad_mrd_evf
    00000CD4              _wai_mem_write_flg:              ; function: wai_mem_write_flg
                                                           ; frame size=12
    00000CD4 4F22                   STS.L       PR,@-R15
    00000CD6 7FF8                   ADD         #-8,R15
    00000CD8 6643                   MOV         R4,R6
    00000CDA E201                   MOV         #1,R2      ; H'00000001
    00000CDC E500                   MOV         #0,R5      ; H'00000000
    00000CDE 225B                   OR          R5,R2
    00000CE0 E504                   MOV         #4,R5      ; H'00000004
    00000CE2 93E3                   MOV.W       L168,R3    ; H'0306
    00000CE4 6733                   MOV         R3,R7
    00000CE6 6423                   MOV         R2,R4
    00000CE8 245B                   OR          R5,R4
    00000CEA 65F3                   MOV         R15,R5
    00000CEC 7504                   ADD         #4,R5
    00000CEE 6263                   MOV         R6,R2
    00000CF0 4208                   SHLL2       R2
    00000CF2 4200                   SHLL        R2
    00000CF4 7204                   ADD         #4,R2
    00000CF6 D383                   MOV.L       L169+4,R3  ; __$dad_mwr_evf
    00000CF8 6023                   MOV         R2,R0
    00000CFA 063E                   MOV.L       @(R0,R3),R6
    00000CFC D282                   MOV.L       L169+8,R2  ; _dad_tmout
    00000CFE 2F22                   MOV.L       R2,@R15
    00000D00 D382                   MOV.L       L169+12,R3 ; _WAI_FLG
    00000D02 430B                   JSR         @R3
    00000D04 0009                   NOP
    00000D06 6203                   MOV         R0,R2
    00000D08 2228                   TST         R2,R2
    00000D0A 8902                   BT          L144
    00000D0C E2FF                   MOV         #-1,R2     ; H'FFFFFFFF
    00000D0E A001                   BRA         L145
    00000D10 0009                   NOP
    00000D12              L144:
    00000D12 E200                   MOV         #0,R2      ; H'00000000
    00000D14              L145:
    00000D14 6023                   MOV         R2,R0
    00000D16 7F08                   ADD         #8,R15
    00000D18 4F26                   LDS.L       @R15+,PR
    00000D1A 000B                   RTS
    00000D1C 0009                   NOP
    00000D1E              _wai_sta_mon_flg:                ; function: wai_sta_mon_flg
                                                           ; frame size=12
    00000D1E 4F22                   STS.L       PR,@-R15
    00000D20 7FF8                   ADD         #-8,R15
    00000D22 6643                   MOV         R4,R6
    00000D24 E201                   MOV         #1,R2      ; H'00000001
    00000D26 E500                   MOV         #0,R5      ; H'00000000
    00000D28 225B                   OR          R5,R2
    00000D2A E504                   MOV         #4,R5      ; H'00000004
    00000D2C 93BF                   MOV.W       L168+2,R3  ; H'0307
    00000D2E 6733                   MOV         R3,R7
    00000D30 6423                   MOV         R2,R4
    00000D32 245B                   OR          R5,R4
    00000D34 65F3                   MOV         R15,R5
    00000D36 7504                   ADD         #4,R5
    00000D38 6263                   MOV         R6,R2
    00000D3A 4208                   SHLL2       R2
    00000D3C 4200                   SHLL        R2
    00000D3E 7204                   ADD         #4,R2
    00000D40 D373                   MOV.L       L169+16,R3 ; __$dad_stam_evf
    00000D42 6023                   MOV         R2,R0
    00000D44 063E                   MOV.L       @(R0,R3),R6
    00000D46 D270                   MOV.L       L169+8,R2  ; _dad_tmout
    00000D48 2F22                   MOV.L       R2,@R15
    00000D4A D370                   MOV.L       L169+12,R3 ; _WAI_FLG
    00000D4C 430B                   JSR         @R3
    00000D4E 0009                   NOP
    00000D50 6203                   MOV         R0,R2
    00000D52 2228                   TST         R2,R2
    00000D54 8902                   BT          L148
    00000D56 E2FF                   MOV         #-1,R2     ; H'FFFFFFFF
    00000D58 A001                   BRA         L149
    00000D5A 0009                   NOP
    00000D5C              L148:
    00000D5C E200                   MOV         #0,R2      ; H'00000000
    00000D5E              L149:
    00000D5E 6023                   MOV         R2,R0
    00000D60 7F08                   ADD         #8,R15
    00000D62 4F26                   LDS.L       @R15+,PR
    00000D64 000B                   RTS
    00000D66 0009                   NOP
    00000D68              _wai_stp_mon_flg:                ; function: wai_stp_mon_flg
                                                           ; frame size=12
    00000D68 4F22                   STS.L       PR,@-R15
    00000D6A 7FF8                   ADD         #-8,R15
    00000D6C 6643                   MOV         R4,R6
    00000D6E E201                   MOV         #1,R2      ; H'00000001
    00000D70 E500                   MOV         #0,R5      ; H'00000000
    00000D72 225B                   OR          R5,R2
    00000D74 E504                   MOV         #4,R5      ; H'00000004
    00000D76 939B                   MOV.W       L168+4,R3  ; H'0308
    00000D78 6733                   MOV         R3,R7
    00000D7A 6423                   MOV         R2,R4
    00000D7C 245B                   OR          R5,R4
    00000D7E 65F3                   MOV         R15,R5
    00000D80 7504                   ADD         #4,R5
    00000D82 6263                   MOV         R6,R2
    00000D84 4208                   SHLL2       R2
    00000D86 4200                   SHLL        R2
    00000D88 7204                   ADD         #4,R2
    00000D8A D362                   MOV.L       L169+20,R3 ; __$dad_stpm_evf
    00000D8C 6023                   MOV         R2,R0
    00000D8E 063E                   MOV.L       @(R0,R3),R6
    00000D90 D25D                   MOV.L       L169+8,R2  ; _dad_tmout
    00000D92 2F22                   MOV.L       R2,@R15
    00000D94 D35D                   MOV.L       L169+12,R3 ; _WAI_FLG
    00000D96 430B                   JSR         @R3
    00000D98 0009                   NOP
    00000D9A 6203                   MOV         R0,R2
    00000D9C 2228                   TST         R2,R2
    00000D9E 8902                   BT          L152
    00000DA0 E2FF                   MOV         #-1,R2     ; H'FFFFFFFF
    00000DA2 A001                   BRA         L153
    00000DA4 0009                   NOP
    00000DA6              L152:
    00000DA6 E200                   MOV         #0,R2      ; H'00000000
    00000DA8              L153:
    00000DA8 6023                   MOV         R2,R0
    00000DAA 7F08                   ADD         #8,R15
    00000DAC 4F26                   LDS.L       @R15+,PR
    00000DAE 000B                   RTS
    00000DB0 0009                   NOP
    00000DB2              __$chg_ul_bef_write:             ; function: __$chg_ul_bef_write
                                                           ; frame size=0
    00000DB2 6641                   MOV.W       @R4,R6
    00000DB4 666F                   EXTS.W      R6,R6
    00000DB6 977C                   MOV.W       L168+6,R7  ; H'00FF
    00000DB8 6263                   MOV         R6,R2
    00000DBA 2279                   AND         R7,R2
    00000DBC 4218                   SHLL8       R2
    00000DBE 6641                   MOV.W       @R4,R6
    00000DC0 666F                   EXTS.W      R6,R6
    00000DC2 D355                   MOV.L       L169+24,R3 ; H'0000FF00
    00000DC4 6563                   MOV         R6,R5
    00000DC6 2539                   AND         R3,R5
    00000DC8 655D                   EXTU.W      R5,R5
    00000DCA 6653                   MOV         R5,R6
    00000DCC E3F8                   MOV         #-8,R3     ; H'FFFFFFF8
    00000DCE 463C                   SHAD        R3,R6
    00000DD0 226B                   OR          R6,R2
    00000DD2 2421                   MOV.W       R2,@R4
    00000DD4 8541                   MOV.W       @(2,R4),R0
    00000DD6 6603                   MOV         R0,R6
    00000DD8 666F                   EXTS.W      R6,R6
    00000DDA 6263                   MOV         R6,R2
    00000DDC 2279                   AND         R7,R2
    00000DDE 4218                   SHLL8       R2
    00000DE0 8541                   MOV.W       @(2,R4),R0
    00000DE2 6603                   MOV         R0,R6
    00000DE4 D34C                   MOV.L       L169+24,R3 ; H'0000FF00
    00000DE6 666F                   EXTS.W      R6,R6
    00000DE8 6563                   MOV         R6,R5
    00000DEA 2539                   AND         R3,R5
    00000DEC 655D                   EXTU.W      R5,R5
    00000DEE 6653                   MOV         R5,R6
    00000DF0 E3F8                   MOV         #-8,R3     ; H'FFFFFFF8
    00000DF2 463C                   SHAD        R3,R6
    00000DF4 226B                   OR          R6,R2
    00000DF6 6023                   MOV         R2,R0
    00000DF8 8141                   MOV.W       R0,@(2,R4)
    00000DFA 000B                   RTS
    00000DFC 0009                   NOP
    00000DFE              __$chg_ul_aft_read1:             ; function: __$chg_ul_aft_read1
                                                           ; frame size=4
    00000DFE 2FE6                   MOV.L       R14,@-R15
    00000E00 6242                   MOV.L       @R4,R2
    00000E02 9656                   MOV.W       L168+6,R6  ; H'00FF
    00000E04 2269                   AND         R6,R2
    00000E06 4228                   SHLL16      R2
    00000E08 4218                   SHLL8       R2
    00000E0A 6642                   MOV.L       @R4,R6
    00000E0C D542                   MOV.L       L169+24,R5 ; H'0000FF00
    00000E0E 2659                   AND         R5,R6
    00000E10 4618                   SHLL8       R6
    00000E12 226B                   OR          R6,R2
    00000E14 6623                   MOV         R2,R6
    00000E16 6242                   MOV.L       @R4,R2
    00000E18 D540                   MOV.L       L169+28,R5 ; H'00FF0000
    00000E1A 2259                   AND         R5,R2
    00000E1C 4219                   SHLR8       R2
    00000E1E 262B                   OR          R2,R6
    00000E20 6242                   MOV.L       @R4,R2
    00000E22 D33F                   MOV.L       L169+32,R3 ; H'FF000000
    00000E24 2239                   AND         R3,R2
    00000E26 4229                   SHLR16      R2
    00000E28 4219                   SHLR8       R2
    00000E2A 262B                   OR          R2,R6
    00000E2C 2462                   MOV.L       R6,@R4
    00000E2E 8542                   MOV.W       @(4,R4),R0
    00000E30 6503                   MOV         R0,R5
    00000E32 655D                   EXTU.W      R5,R5
    00000E34 6653                   MOV         R5,R6
    00000E36 9E3C                   MOV.W       L168+6,R14 ; H'00FF
    00000E38 26E9                   AND         R14,R6
    00000E3A 4618                   SHLL8       R6
    00000E3C 8542                   MOV.W       @(4,R4),R0
    00000E3E 6203                   MOV         R0,R2
    00000E40 622D                   EXTU.W      R2,R2
    00000E42 6523                   MOV         R2,R5
    00000E44 6253                   MOV         R5,R2
    00000E46 D734                   MOV.L       L169+24,R7 ; H'0000FF00
    00000E48 2279                   AND         R7,R2
    00000E4A 622D                   EXTU.W      R2,R2
    00000E4C 6523                   MOV         R2,R5
    00000E4E 6263                   MOV         R6,R2
    00000E50 E3F8                   MOV         #-8,R3     ; H'FFFFFFF8
    00000E52 453C                   SHAD        R3,R5
    00000E54 225B                   OR          R5,R2
    00000E56 6023                   MOV         R2,R0
    00000E58 8142                   MOV.W       R0,@(4,R4)
    00000E5A 8543                   MOV.W       @(6,R4),R0
    00000E5C 6203                   MOV         R0,R2
    00000E5E 622D                   EXTU.W      R2,R2
    00000E60 6523                   MOV         R2,R5
    00000E62 6653                   MOV         R5,R6
    00000E64 26E9                   AND         R14,R6
    00000E66 4618                   SHLL8       R6
    00000E68 8543                   MOV.W       @(6,R4),R0
    00000E6A 6503                   MOV         R0,R5
    00000E6C 655D                   EXTU.W      R5,R5
    00000E6E 6253                   MOV         R5,R2
    00000E70 2279                   AND         R7,R2
    00000E72 622D                   EXTU.W      R2,R2
    00000E74 6523                   MOV         R2,R5
    00000E76 6263                   MOV         R6,R2
    00000E78 E3F8                   MOV         #-8,R3     ; H'FFFFFFF8
    00000E7A 453C                   SHAD        R3,R5
    00000E7C 225B                   OR          R5,R2
    00000E7E 6023                   MOV         R2,R0
    00000E80 8143                   MOV.W       R0,@(6,R4)
    00000E82 8544                   MOV.W       @(8,R4),R0
    00000E84 6203                   MOV         R0,R2
    00000E86 622F                   EXTS.W      R2,R2
    00000E88 6523                   MOV         R2,R5
    00000E8A 25E9                   AND         R14,R5
    00000E8C 4518                   SHLL8       R5
    00000E8E 8544                   MOV.W       @(8,R4),R0
    00000E90 6603                   MOV         R0,R6
    00000E92 666F                   EXTS.W      R6,R6
    00000E94 6263                   MOV         R6,R2
    00000E96 2279                   AND         R7,R2
    00000E98 622D                   EXTU.W      R2,R2
    00000E9A 6623                   MOV         R2,R6
    00000E9C E3F8                   MOV         #-8,R3     ; H'FFFFFFF8
    00000E9E 463C                   SHAD        R3,R6
    00000EA0 256B                   OR          R6,R5
    00000EA2 6053                   MOV         R5,R0
    00000EA4 8144                   MOV.W       R0,@(8,R4)
    00000EA6 6EF6                   MOV.L       @R15+,R14
    00000EA8 000B                   RTS
    00000EAA 0009                   NOP
    00000EAC              L168:
    00000EAC 0306                   .DATA.W     H'0306
    00000EAE 0307                   .DATA.W     H'0307
    00000EB0 0308                   .DATA.W     H'0308
    00000EB2 00FF                   .DATA.W     H'00FF
    00000EB4              __$chg_ul_aft_read2:             ; function: __$chg_ul_aft_read2
                                                           ; frame size=0
    00000EB4 6641                   MOV.W       @R4,R6
    00000EB6 666F                   EXTS.W      R6,R6
    00000EB8 9722                   MOV.W       L169,R7    ; H'00FF
    00000EBA 6263                   MOV         R6,R2
    00000EBC 2279                   AND         R7,R2
    00000EBE 4218                   SHLL8       R2
    00000EC0 6641                   MOV.W       @R4,R6
    00000EC2 666F                   EXTS.W      R6,R6
    00000EC4 D314                   MOV.L       L169+24,R3 ; H'0000FF00
    00000EC6 6563                   MOV         R6,R5
    00000EC8 2539                   AND         R3,R5
    00000ECA 655D                   EXTU.W      R5,R5
    00000ECC 6653                   MOV         R5,R6
    00000ECE E3F8                   MOV         #-8,R3     ; H'FFFFFFF8
    00000ED0 463C                   SHAD        R3,R6
    00000ED2 226B                   OR          R6,R2
    00000ED4 2421                   MOV.W       R2,@R4
    00000ED6 8541                   MOV.W       @(2,R4),R0
    00000ED8 6603                   MOV         R0,R6
    00000EDA 666F                   EXTS.W      R6,R6
    00000EDC 6263                   MOV         R6,R2
    00000EDE 2279                   AND         R7,R2
    00000EE0 4218                   SHLL8       R2
    00000EE2 8541                   MOV.W       @(2,R4),R0
    00000EE4 6603                   MOV         R0,R6
    00000EE6 D30C                   MOV.L       L169+24,R3 ; H'0000FF00
    00000EE8 666F                   EXTS.W      R6,R6
    00000EEA 6563                   MOV         R6,R5
    00000EEC 2539                   AND         R3,R5
    00000EEE 655D                   EXTU.W      R5,R5
    00000EF0 6653                   MOV         R5,R6
    00000EF2 E3F8                   MOV         #-8,R3     ; H'FFFFFFF8
    00000EF4 463C                   SHAD        R3,R6
    00000EF6 226B                   OR          R6,R2
    00000EF8 6023                   MOV         R2,R0
    00000EFA 8141                   MOV.W       R0,@(2,R4)
    00000EFC 000B                   RTS
    00000EFE 0009                   NOP
    00000F00              L169:
    00000F00 00FF                   .DATA.W     H'00FF
    00000F02 00000002               .RES.W      1
    00000F04 <00000000>             .DATA.L     __$dad_mwr_evf
    00000F08 <00000000>             .DATA.L     _dad_tmout
    00000F0C <00000000>             .DATA.L     _WAI_FLG
    00000F10 <00000000>             .DATA.L     __$dad_stam_evf
    00000F14 <00000000>             .DATA.L     __$dad_stpm_evf
    00000F18 0000FF00               .DATA.L     H'0000FF00
    00000F1C 00FF0000               .DATA.L     H'00FF0000
    00000F20 FF000000               .DATA.L     H'FF000000
C   00000000              L194:
    00000000 4153534552             .SDATA      "ASSERTION FAILED: !err FILE %s,LINE %d "
             54494F4E20   
             4641494C45   
             443A202165   
             7272204649   
             4C45202573   
             2C4C494E45   
             20256420     
    00000027 0A00                   .DATA.B     H'0A,H'00
    00000029 00                     .DATAB.B    3,0
    0000002C              L195:
    0000002C 6461646974             .SDATA      "daditsk.c"
             736B2E63     
    00000035 00                     .DATA.B     H'00
    00000036 00                     .DATAB.B    2,0
    00000038              L201:
    00000038 4153534552             .SDATA      "ASSERTION FAILED: err>0 FILE %s,LINE %d "
             54494F4E20   
             4641494C45   
             443A206572   
             723E302046   
             494C452025   
             732C4C494E   
             4520256420   
    00000060 0A00                   .DATA.B     H'0A,H'00
B   00000000              __$mpl0:                         ; static: __$mpl0
    00000000 00000004               .RES.L      2
    00000008              __$dad_boot_evf:                 ; static: __$dad_boot_evf
    00000008 00000004               .RES.L      8
    00000028              __$dad_zc_mbx:                   ; static: __$dad_zc_mbx
    00000028 00000004               .RES.L      8
    00000048              __$dad_spn_evf:                  ; static: __$dad_spn_evf
    00000048 00000004               .RES.L      8
    00000068              __$dad_afv_evf:                  ; static: __$dad_afv_evf
    00000068 00000004               .RES.L      8
    00000088              __$dad_afv_mbx:                  ; static: __$dad_afv_mbx
    00000088 00000004               .RES.L      2
    00000090              __$dad_mrd_evf:                  ; static: __$dad_mrd_evf
    00000090 00000004               .RES.L      8
    000000B0              __$dad_mwr_evf:                  ; static: __$dad_mwr_evf
    000000B0 00000004               .RES.L      8
    000000D0              __$dad_stam_evf:                 ; static: __$dad_stam_evf
    000000D0 00000004               .RES.L      8
    000000F0              __$dad_stpm_evf:                 ; static: __$dad_stpm_evf
    000000F0 00000004               .RES.L      8
SH SERIES C/C++ Compiler (Ver. checker(2003.03.17))                                              10-Nov-2011 18:53:54  PAGE    1


******** STATISTICS INFORMATION ********


********** ERROR INFORMATION ***********

NUMBER OF ERRORS:           0
NUMBER OF WARNINGS:         0
NUMBER OF INFORMATIONS:     0



******* SOURCE LINE INFORMATION ********

COMPILED SOURCE LINE:      487



******* SECTION SIZE INFORMATION *******

PROGRAM  SECTION (P):                               00000F24 Byte(s)
CONSTANT SECTION (C):                               00000062 Byte(s)
DATA     SECTION (D):                               00000000 Byte(s)
BSS      SECTION (B):                               00000110 Byte(s)

TOTAL PROGRAM  SECTION: 00000F24 Byte(s)
TOTAL CONSTANT SECTION: 00000062 Byte(s)
TOTAL DATA     SECTION: 00000000 Byte(s)
TOTAL BSS      SECTION: 00000110 Byte(s)

    TOTAL PROGRAM SIZE: 00001096 Byte(s)



********** LABEL INFORMATION ***********

NUMBER OF EXTERNAL REFERENCE SYMBOLS:           26
NUMBER OF EXTERNAL DEFINITION SYMBOLS:          11
NUMBER OF INTERNAL/EXTERNAL SYMBOLS:           133
*** COMMAND PARAMETER ***


  -cpu=sh3 -op=0 -en=big -me -debug -comment=nest -l -def=DEBUG,MAS_P5554,MAS_BIG_ENDIAN -i=P:\PRESTO2\SHINC,C:\usr\local\SH\7_1_1\include,P:\PRESTO2\NORTI_12\inc daditsk.c 

