SH SERIES C/C++ Compiler (Ver. checker(2003.03.17))                                              03-Feb-2004 12:21:53  PAGE    1

************ OBJECT LISTING ************

FILE NAME: ctime.c

SCT OFFSET   CODE       C LABEL     INSTRUCTION OPERAND    COMMENT

P   00000000              _country:                        ; function: country
                                                           ; frame size=0
    00000000 2448                   TST         R4,R4
    00000002 D56C                   MOV.L       L39+2,R5   ; _country_flag
    00000004 8B01                   BF          L11
    00000006 000B                   RTS
    00000008 6052                   MOV.L       @R5,R0
    0000000A              L11:
    0000000A 2542                   MOV.L       R4,@R5
    0000000C 000B                   RTS
    0000000E 6043                   MOV         R4,R0
    00000010              _ctime:                          ; function: ctime
                                                           ; frame size=4
    00000010 4F22                   STS.L       PR,@-R15
    00000012 B003                   BSR         _localtime
    00000014 0009                   NOP
    00000016 6403                   MOV         R0,R4
    00000018 A012                   BRA         _asctime
    0000001A 4F26                   LDS.L       @R15+,PR
    0000001C              _localtime:                      ; function: localtime
                                                           ; frame size=4
    0000001C 7FFC                   ADD         #-4,R15
    0000001E 6242                   MOV.L       @R4,R2
    00000020 D465                   MOV.L       L39+6,R4   ; __$tm$55
    00000022 2F22                   MOV.L       R2,@R15
    00000024 85F1                   MOV.W       @(2,R15),R0
    00000026 6603                   MOV         R0,R6
    00000028 C93F                   AND         #63,R0
    0000002A 2401                   MOV.W       R0,@R4
    0000002C 606D                   EXTU.W      R6,R0
    0000002E 4019                   SHLR8       R0
    00000030 C93F                   AND         #63,R0
    00000032 8141                   MOV.W       R0,@(2,R4)
    00000034 60F1                   MOV.W       @R15,R0
    00000036 C91F                   AND         #31,R0
    00000038 8142                   MOV.W       R0,@(4,R4)
    0000003A 6043                   MOV         R4,R0
    0000003C 000B                   RTS
    0000003E 7F04                   ADD         #4,R15
    00000040              _asctime:                        ; function: asctime
                                                           ; frame size=8
    00000040 2FE6                   MOV.L       R14,@-R15
    00000042 4F22                   STS.L       PR,@-R15
    00000044 6E43                   MOV         R4,R14
    00000046 8542                   MOV.W       @(4,R4),R0
    00000048 D45C                   MOV.L       L39+10,R4  ; __$buffer$56
    0000004A B014                   BSR         _i2a
    0000004C 6503                   MOV         R0,R5
    0000004E D45B                   MOV.L       L39+10,R4  ; __$buffer$56
    00000050 E03A                   MOV         #58,R0     ; H'0000003A
    00000052 8042                   MOV.B       R0,@(2,R4)
    00000054 7403                   ADD         #3,R4
    00000056 85E1                   MOV.W       @(2,R14),R0
    00000058 B00D                   BSR         _i2a
    0000005A 6503                   MOV         R0,R5
    0000005C D457                   MOV.L       L39+10,R4  ; __$buffer$56
    0000005E E03A                   MOV         #58,R0     ; H'0000003A
    00000060 8045                   MOV.B       R0,@(5,R4)
    00000062 7406                   ADD         #6,R4
    00000064 B007                   BSR         _i2a
    00000066 65E1                   MOV.W       @R14,R5
    00000068 D254                   MOV.L       L39+10,R2  ; __$buffer$56
    0000006A E000                   MOV         #0,R0      ; H'00000000
    0000006C 8028                   MOV.B       R0,@(8,R2)
    0000006E 6023                   MOV         R2,R0
    00000070 4F26                   LDS.L       @R15+,PR
    00000072 000B                   RTS
    00000074 6EF6                   MOV.L       @R15+,R14
    00000076              _i2a:                            ; function: i2a
                                                           ; frame size=8
    00000076 4F12                   STS.L       MACL,@-R15
    00000078 4F02                   STS.L       MACH,@-R15
    0000007A D251                   MOV.L       L39+14,R2  ; H'66666667
    0000007C 6753                   MOV         R5,R7
    0000007E 325D                   DMULS.L     R5,R2
    00000080 060A                   STS         MACH,R6
    00000082 4621                   SHAR        R6
    00000084 4621                   SHAR        R6
    00000086 6063                   MOV         R6,R0
    00000088 4004                   ROTL        R0
    0000008A C901                   AND         #1,R0
    0000008C 360C                   ADD         R0,R6
    0000008E 6263                   MOV         R6,R2
    00000090 7230                   ADD         #48,R2
    00000092 2420                   MOV.B       R2,@R4
    00000094 6263                   MOV         R6,R2
    00000096 4208                   SHLL2       R2
    00000098 326C                   ADD         R6,R2
    0000009A 4200                   SHLL        R2
    0000009C 3728                   SUB         R2,R7
    0000009E 7401                   ADD         #1,R4
    000000A0 7730                   ADD         #48,R7
    000000A2 E000                   MOV         #0,R0      ; H'00000000
    000000A4 2470                   MOV.B       R7,@R4
    000000A6 8041                   MOV.B       R0,@(1,R4)
    000000A8 4F06                   LDS.L       @R15+,MACH
    000000AA 000B                   RTS
    000000AC 4F16                   LDS.L       @R15+,MACL
    000000AE              _i4a:                            ; function: i4a
                                                           ; frame size=8
    000000AE 4F12                   STS.L       MACL,@-R15
    000000B0 4F02                   STS.L       MACH,@-R15
    000000B2 D244                   MOV.L       L39+18,R2  ; H'10624DD3
    000000B4 325D                   DMULS.L     R5,R2
    000000B6 D244                   MOV.L       L39+22,R2  ; H'51EB851F
    000000B8 060A                   STS         MACH,R6
    000000BA 325D                   DMULS.L     R5,R2
    000000BC 4621                   SHAR        R6
    000000BE 4621                   SHAR        R6
    000000C0 4621                   SHAR        R6
    000000C2 4621                   SHAR        R6
    000000C4 010A                   STS         MACH,R1
    000000C6 4621                   SHAR        R6
    000000C8 4621                   SHAR        R6
    000000CA 6063                   MOV         R6,R0
    000000CC 4004                   ROTL        R0
    000000CE 4121                   SHAR        R1
    000000D0 C901                   AND         #1,R0
    000000D2 4121                   SHAR        R1
    000000D4 360C                   ADD         R0,R6
    000000D6 4121                   SHAR        R1
    000000D8 4121                   SHAR        R1
    000000DA 6263                   MOV         R6,R2
    000000DC 4208                   SHLL2       R2
    000000DE 4121                   SHAR        R1
    000000E0 326C                   ADD         R6,R2
    000000E2 D737                   MOV.L       L39+14,R7  ; H'66666667
    000000E4 6013                   MOV         R1,R0
    000000E6 4004                   ROTL        R0
    000000E8 C901                   AND         #1,R0
    000000EA 375D                   DMULS.L     R5,R7
    000000EC 7630                   ADD         #48,R6
    000000EE 310C                   ADD         R0,R1
    000000F0 2460                   MOV.B       R6,@R4
    000000F2 4200                   SHLL        R2
    000000F4 6613                   MOV         R1,R6
    000000F6 3628                   SUB         R2,R6
    000000F8 6213                   MOV         R1,R2
    000000FA 7401                   ADD         #1,R4
    000000FC 7630                   ADD         #48,R6
    000000FE 2460                   MOV.B       R6,@R4
    00000100 4208                   SHLL2       R2
    00000102 060A                   STS         MACH,R6
    00000104 321C                   ADD         R1,R2
    00000106 7401                   ADD         #1,R4
    00000108 4621                   SHAR        R6
    0000010A 4621                   SHAR        R6
    0000010C 6063                   MOV         R6,R0
    0000010E 4004                   ROTL        R0
    00000110 C901                   AND         #1,R0
    00000112 375D                   DMULS.L     R5,R7
    00000114 360C                   ADD         R0,R6
    00000116 4200                   SHLL        R2
    00000118 3628                   SUB         R2,R6
    0000011A 7630                   ADD         #48,R6
    0000011C 2460                   MOV.B       R6,@R4
    0000011E 7401                   ADD         #1,R4
    00000120 060A                   STS         MACH,R6
    00000122 4621                   SHAR        R6
    00000124 4621                   SHAR        R6
    00000126 6063                   MOV         R6,R0
    00000128 4004                   ROTL        R0
    0000012A C901                   AND         #1,R0
    0000012C 360C                   ADD         R0,R6
    0000012E 6263                   MOV         R6,R2
    00000130 4208                   SHLL2       R2
    00000132 326C                   ADD         R6,R2
    00000134 4200                   SHLL        R2
    00000136 3528                   SUB         R2,R5
    00000138 7530                   ADD         #48,R5
    0000013A E000                   MOV         #0,R0      ; H'00000000
    0000013C 2450                   MOV.B       R5,@R4
    0000013E 8041                   MOV.B       R0,@(1,R4)
    00000140 4F06                   LDS.L       @R15+,MACH
    00000142 000B                   RTS
    00000144 4F16                   LDS.L       @R15+,MACL
    00000146              _cdate:                          ; function: cdate
                                                           ; frame size=4
    00000146 4F22                   STS.L       PR,@-R15
    00000148 B003                   BSR         _localdate
    0000014A 0009                   NOP
    0000014C 6403                   MOV         R0,R4
    0000014E A018                   BRA         _ascdate
    00000150 4F26                   LDS.L       @R15+,PR
    00000152              _localdate:                      ; function: localdate
                                                           ; frame size=4
    00000152 7FFC                   ADD         #-4,R15
    00000154 6242                   MOV.L       @R4,R2
    00000156 D41D                   MOV.L       L39+26,R4  ; __$tm$57
    00000158 2F22                   MOV.L       R2,@R15
    0000015A 85F1                   MOV.W       @(2,R15),R0
    0000015C 6603                   MOV         R0,R6
    0000015E C907                   AND         #7,R0
    00000160 2401                   MOV.W       R0,@R4
    00000162 606D                   EXTU.W      R6,R0
    00000164 4019                   SHLR8       R0
    00000166 66F1                   MOV.W       @R15,R6
    00000168 C91F                   AND         #31,R0
    0000016A 8141                   MOV.W       R0,@(2,R4)
    0000016C 6063                   MOV         R6,R0
    0000016E C90F                   AND         #15,R0
    00000170 70FF                   ADD         #-1,R0
    00000172 8142                   MOV.W       R0,@(4,R4)
    00000174 606D                   EXTU.W      R6,R0
    00000176 4019                   SHLR8       R0
    00000178 C97F                   AND         #127,R0
    0000017A 8143                   MOV.W       R0,@(6,R4)
    0000017C 6043                   MOV         R4,R0
    0000017E 000B                   RTS
    00000180 7F04                   ADD         #4,R15
    00000182              _ascdate:                        ; function: ascdate
                                                           ; frame size=16
    00000182 2FD6                   MOV.L       R13,@-R15
    00000184 2FE6                   MOV.L       R14,@-R15
    00000186 4F22                   STS.L       PR,@-R15
    00000188 7FFC                   ADD         #-4,R15
    0000018A E608                   MOV         #8,R6      ; H'00000008
    0000018C 8543                   MOV.W       @(6,R4),R0
    0000018E 4618                   SHLL8       R6
    00000190 6E43                   MOV         R4,R14
    00000192 76BC                   ADD         #-68,R6
    00000194 306C                   ADD         R6,R0
    00000196 D607                   MOV.L       L39+2,R6   ; _country_flag
    00000198 6262                   MOV.L       @R6,R2
    0000019A E609                   MOV         #9,R6      ; H'00000009
    0000019C 72FF                   ADD         #-1,R2
    0000019E 3266                   CMP/HI      R6,R2
    000001A0 8F02                   BF/S        L54
    000001A2 6D03                   MOV         R0,R13
    000001A4 A26D                   BRA         L38
    000001A6 0009                   NOP
    000001A8              L54:
    000001A8 4200                   SHLL        R2
    000001AA C709                   MOVA        L40,R0
    000001AC 002D                   MOV.W       @(R0,R2),R0
    000001AE 0023                   BRAF        R0
    000001B0 0009                   NOP
    000001B2              L39:
    000001B2 00000002               .RES.W      1
    000001B4 <00000000>             .DATA.L     _country_flag
    000001B8 <00000000>             .DATA.L     __$tm$55
    000001BC <00000000>             .DATA.L     __$buffer$56
    000001C0 66666667               .DATA.L     H'66666667
    000001C4 10624DD3               .DATA.L     H'10624DD3
    000001C8 51EB851F               .DATA.L     H'51EB851F
    000001CC <00000000>             .DATA.L     __$tm$57
    000001D0              L40:
    000001D0 0032                   .DATA.W     L26-L39
    000001D2 009C                   .DATA.W     L27-L39
    000001D4 0108                   .DATA.W     L28-L39
    000001D6 01B2                   .DATA.W     L29-L39
    000001D8 021E                   .DATA.W     L30-L39
    000001DA 028A                   .DATA.W     L31-L39
    000001DC 02F6                   .DATA.W     L32-L39
    000001DE 038E                   .DATA.W     L33-L39
    000001E0 03FA                   .DATA.W     L34-L39
    000001E2 0466                   .DATA.W     L35-L39
    000001E4              L26:
    000001E4 60E1                   MOV.W       @R14,R0
    000001E6 D4CB                   MOV.L       L52,R4     ; __$days$58
    000001E8 4008                   SHLL2       R0
    000001EA D7CB                   MOV.L       L52+4,R7   ; __$buffer$59
    000001EC 064C                   MOV.B       @(R0,R4),R6
    000001EE 6543                   MOV         R4,R5
    000001F0 7501                   ADD         #1,R5
    000001F2 2F72                   MOV.L       R7,@R15
    000001F4 2760                   MOV.B       R6,@R7
    000001F6 7402                   ADD         #2,R4
    000001F8 60E1                   MOV.W       @R14,R0
    000001FA 4008                   SHLL2       R0
    000001FC 005C                   MOV.B       @(R0,R5),R0
    000001FE 8071                   MOV.B       R0,@(1,R7)
    00000200 60E1                   MOV.W       @R14,R0
    00000202 4008                   SHLL2       R0
    00000204 004C                   MOV.B       @(R0,R4),R0
    00000206 D4C5                   MOV.L       L52+8,R4   ; __$months_eng$60
    00000208 8072                   MOV.B       R0,@(2,R7)
    0000020A E020                   MOV         #32,R0     ; H'00000020
    0000020C 8073                   MOV.B       R0,@(3,R7)
    0000020E 6543                   MOV         R4,R5
    00000210 85E2                   MOV.W       @(4,R14),R0
    00000212 7501                   ADD         #1,R5
    00000214 4008                   SHLL2       R0
    00000216 004C                   MOV.B       @(R0,R4),R0
    00000218 7402                   ADD         #2,R4
    0000021A 8074                   MOV.B       R0,@(4,R7)
    0000021C 85E2                   MOV.W       @(4,R14),R0
    0000021E 4008                   SHLL2       R0
    00000220 005C                   MOV.B       @(R0,R5),R0
    00000222 8075                   MOV.B       R0,@(5,R7)
    00000224 85E2                   MOV.W       @(4,R14),R0
    00000226 4008                   SHLL2       R0
    00000228 004C                   MOV.B       @(R0,R4),R0
    0000022A 8076                   MOV.B       R0,@(6,R7)
    0000022C E02D                   MOV         #45,R0     ; H'0000002D
    0000022E 8077                   MOV.B       R0,@(7,R7)
    00000230 7708                   ADD         #8,R7
    00000232 85E1                   MOV.W       @(2,R14),R0
    00000234 6473                   MOV         R7,R4
    00000236 BF1E                   BSR         _i2a
    00000238 6503                   MOV         R0,R5
    0000023A 64F2                   MOV.L       @R15,R4
    0000023C E02D                   MOV         #45,R0     ; H'0000002D
    0000023E 65D3                   MOV         R13,R5
    00000240 804A                   MOV.B       R0,@(10,R4)
    00000242 BF34                   BSR         _i4a
    00000244 740B                   ADD         #11,R4
    00000246 67F2                   MOV.L       @R15,R7
    00000248 E000                   MOV         #0,R0      ; H'00000000
    0000024A A21A                   BRA         L38
    0000024C 807F                   MOV.B       R0,@(15,R7)
    0000024E              L27:
    0000024E 60E1                   MOV.W       @R14,R0
    00000250 D4B0                   MOV.L       L52,R4     ; __$days$58
    00000252 4008                   SHLL2       R0
    00000254 D7B0                   MOV.L       L52+4,R7   ; __$buffer$59
    00000256 064C                   MOV.B       @(R0,R4),R6
    00000258 6543                   MOV         R4,R5
    0000025A 7501                   ADD         #1,R5
    0000025C 2F72                   MOV.L       R7,@R15
    0000025E 2760                   MOV.B       R6,@R7
    00000260 7402                   ADD         #2,R4
    00000262 60E1                   MOV.W       @R14,R0
    00000264 4008                   SHLL2       R0
    00000266 005C                   MOV.B       @(R0,R5),R0
    00000268 8071                   MOV.B       R0,@(1,R7)
    0000026A 60E1                   MOV.W       @R14,R0
    0000026C 4008                   SHLL2       R0
    0000026E 004C                   MOV.B       @(R0,R4),R0
    00000270 8072                   MOV.B       R0,@(2,R7)
    00000272 E020                   MOV         #32,R0     ; H'00000020
    00000274 8073                   MOV.B       R0,@(3,R7)
    00000276 7704                   ADD         #4,R7
    00000278 85E1                   MOV.W       @(2,R14),R0
    0000027A 6473                   MOV         R7,R4
    0000027C BEFB                   BSR         _i2a
    0000027E 6503                   MOV         R0,R5
    00000280 67F2                   MOV.L       @R15,R7
    00000282 E02D                   MOV         #45,R0     ; H'0000002D
    00000284 D4A5                   MOV.L       L52+8,R4   ; __$months_eng$60
    00000286 8076                   MOV.B       R0,@(6,R7)
    00000288 85E2                   MOV.W       @(4,R14),R0
    0000028A 6543                   MOV         R4,R5
    0000028C 7501                   ADD         #1,R5
    0000028E 4008                   SHLL2       R0
    00000290 004C                   MOV.B       @(R0,R4),R0
    00000292 7402                   ADD         #2,R4
    00000294 8077                   MOV.B       R0,@(7,R7)
    00000296 85E2                   MOV.W       @(4,R14),R0
    00000298 4008                   SHLL2       R0
    0000029A 005C                   MOV.B       @(R0,R5),R0
    0000029C 65D3                   MOV         R13,R5
    0000029E 8078                   MOV.B       R0,@(8,R7)
    000002A0 85E2                   MOV.W       @(4,R14),R0
    000002A2 4008                   SHLL2       R0
    000002A4 004C                   MOV.B       @(R0,R4),R0
    000002A6 8079                   MOV.B       R0,@(9,R7)
    000002A8 E02D                   MOV         #45,R0     ; H'0000002D
    000002AA 807A                   MOV.B       R0,@(10,R7)
    000002AC 770B                   ADD         #11,R7
    000002AE BEFE                   BSR         _i4a
    000002B0 6473                   MOV         R7,R4
    000002B2 67F2                   MOV.L       @R15,R7
    000002B4 E000                   MOV         #0,R0      ; H'00000000
    000002B6 A1E4                   BRA         L38
    000002B8 807F                   MOV.B       R0,@(15,R7)
    000002BA              L28:
    000002BA D497                   MOV.L       L52+4,R4   ; __$buffer$59
    000002BC 65D3                   MOV         R13,R5
    000002BE BEF6                   BSR         _i4a
    000002C0 2F42                   MOV.L       R4,@R15
    000002C2 D697                   MOV.L       L52+12,R6  ; L61
    000002C4 64F2                   MOV.L       @R15,R4
    000002C6 6264                   MOV.B       @R6+,R2
    000002C8 6543                   MOV         R4,R5
    000002CA 7504                   ADD         #4,R5
    000002CC 2520                   MOV.B       R2,@R5
    000002CE 7501                   ADD         #1,R5
    000002D0 6264                   MOV.B       @R6+,R2
    000002D2 7406                   ADD         #6,R4
    000002D4 2520                   MOV.B       R2,@R5
    000002D6 7501                   ADD         #1,R5
    000002D8 6260                   MOV.B       @R6,R2
    000002DA 2520                   MOV.B       R2,@R5
    000002DC 85E2                   MOV.W       @(4,R14),R0
    000002DE 7001                   ADD         #1,R0
    000002E0 BEC9                   BSR         _i2a
    000002E2 6503                   MOV         R0,R5
    000002E4 D68F                   MOV.L       L52+16,R6  ; L62
    000002E6 64F2                   MOV.L       @R15,R4
    000002E8 6264                   MOV.B       @R6+,R2
    000002EA 6543                   MOV         R4,R5
    000002EC 7508                   ADD         #8,R5
    000002EE 2520                   MOV.B       R2,@R5
    000002F0 7501                   ADD         #1,R5
    000002F2 6264                   MOV.B       @R6+,R2
    000002F4 740A                   ADD         #10,R4
    000002F6 2520                   MOV.B       R2,@R5
    000002F8 7501                   ADD         #1,R5
    000002FA 6260                   MOV.B       @R6,R2
    000002FC 2520                   MOV.B       R2,@R5
    000002FE 85E1                   MOV.W       @(2,R14),R0
    00000300 BEB9                   BSR         _i2a
    00000302 6503                   MOV         R0,R5
    00000304 D688                   MOV.L       L52+20,R6  ; L63
    00000306 67F2                   MOV.L       @R15,R7
    00000308 6264                   MOV.B       @R6+,R2
    0000030A 6573                   MOV         R7,R5
    0000030C 750C                   ADD         #12,R5
    0000030E 2520                   MOV.B       R2,@R5
    00000310 7501                   ADD         #1,R5
    00000312 6264                   MOV.B       @R6+,R2
    00000314 D485                   MOV.L       L52+24,R4  ; __$days_jap$64
    00000316 2520                   MOV.B       R2,@R5
    00000318 7501                   ADD         #1,R5
    0000031A 6260                   MOV.B       @R6,R2
    0000031C 2520                   MOV.B       R2,@R5
    0000031E 6543                   MOV         R4,R5
    00000320 66E1                   MOV.W       @R14,R6
    00000322 7501                   ADD         #1,R5
    00000324 E200                   MOV         #0,R2      ; H'00000000
    00000326 6063                   MOV         R6,R0
    00000328 4008                   SHLL2       R0
    0000032A 306C                   ADD         R6,R0
    0000032C 004C                   MOV.B       @(R0,R4),R0
    0000032E 807E                   MOV.B       R0,@(14,R7)
    00000330 66E1                   MOV.W       @R14,R6
    00000332 6063                   MOV         R6,R0
    00000334 4008                   SHLL2       R0
    00000336 306C                   ADD         R6,R0
    00000338 005C                   MOV.B       @(R0,R5),R0
    0000033A 6543                   MOV         R4,R5
    0000033C 7502                   ADD         #2,R5
    0000033E 807F                   MOV.B       R0,@(15,R7)
    00000340 7403                   ADD         #3,R4
    00000342 66E1                   MOV.W       @R14,R6
    00000344 6063                   MOV         R6,R0
    00000346 4008                   SHLL2       R0
    00000348 306C                   ADD         R6,R0
    0000034A 065C                   MOV.B       @(R0,R5),R6
    0000034C E010                   MOV         #16,R0     ; H'00000010
    0000034E 0764                   MOV.B       R6,@(R0,R7)
    00000350 66E1                   MOV.W       @R14,R6
    00000352 6063                   MOV         R6,R0
    00000354 4008                   SHLL2       R0
    00000356 306C                   ADD         R6,R0
    00000358 064C                   MOV.B       @(R0,R4),R6
    0000035A E011                   MOV         #17,R0     ; H'00000011
    0000035C 0764                   MOV.B       R6,@(R0,R7)
    0000035E E012                   MOV         #18,R0     ; H'00000012
    00000360 A18F                   BRA         L38
    00000362 0724                   MOV.B       R2,@(R0,R7)
    00000364              L29:
    00000364 60E1                   MOV.W       @R14,R0
    00000366 D46B                   MOV.L       L52,R4     ; __$days$58
    00000368 4008                   SHLL2       R0
    0000036A D76B                   MOV.L       L52+4,R7   ; __$buffer$59
    0000036C 064C                   MOV.B       @(R0,R4),R6
    0000036E 6543                   MOV         R4,R5
    00000370 7501                   ADD         #1,R5
    00000372 2F72                   MOV.L       R7,@R15
    00000374 2760                   MOV.B       R6,@R7
    00000376 7402                   ADD         #2,R4
    00000378 60E1                   MOV.W       @R14,R0
    0000037A 4008                   SHLL2       R0
    0000037C 005C                   MOV.B       @(R0,R5),R0
    0000037E 8071                   MOV.B       R0,@(1,R7)
    00000380 60E1                   MOV.W       @R14,R0
    00000382 4008                   SHLL2       R0
    00000384 004C                   MOV.B       @(R0,R4),R0
    00000386 8072                   MOV.B       R0,@(2,R7)
    00000388 E020                   MOV         #32,R0     ; H'00000020
    0000038A 8073                   MOV.B       R0,@(3,R7)
    0000038C 7704                   ADD         #4,R7
    0000038E 85E1                   MOV.W       @(2,R14),R0
    00000390 6473                   MOV         R7,R4
    00000392 BE70                   BSR         _i2a
    00000394 6503                   MOV         R0,R5
    00000396 67F2                   MOV.L       @R15,R7
    00000398 E02D                   MOV         #45,R0     ; H'0000002D
    0000039A D465                   MOV.L       L52+28,R4  ; __$months_fre$65
    0000039C 8076                   MOV.B       R0,@(6,R7)
    0000039E 85E2                   MOV.W       @(4,R14),R0
    000003A0 6543                   MOV         R4,R5
    000003A2 7501                   ADD         #1,R5
    000003A4 4008                   SHLL2       R0
    000003A6 004C                   MOV.B       @(R0,R4),R0
    000003A8 7402                   ADD         #2,R4
    000003AA 8077                   MOV.B       R0,@(7,R7)
    000003AC 85E2                   MOV.W       @(4,R14),R0
    000003AE 4008                   SHLL2       R0
    000003B0 005C                   MOV.B       @(R0,R5),R0
    000003B2 65D3                   MOV         R13,R5
    000003B4 8078                   MOV.B       R0,@(8,R7)
    000003B6 85E2                   MOV.W       @(4,R14),R0
    000003B8 4008                   SHLL2       R0
    000003BA 004C                   MOV.B       @(R0,R4),R0
    000003BC 8079                   MOV.B       R0,@(9,R7)
    000003BE E02D                   MOV         #45,R0     ; H'0000002D
    000003C0 807A                   MOV.B       R0,@(10,R7)
    000003C2 770B                   ADD         #11,R7
    000003C4 BE73                   BSR         _i4a
    000003C6 6473                   MOV         R7,R4
    000003C8 67F2                   MOV.L       @R15,R7
    000003CA E000                   MOV         #0,R0      ; H'00000000
    000003CC A159                   BRA         L38
    000003CE 807F                   MOV.B       R0,@(15,R7)
    000003D0              L30:
    000003D0 60E1                   MOV.W       @R14,R0
    000003D2 D450                   MOV.L       L52,R4     ; __$days$58
    000003D4 4008                   SHLL2       R0
    000003D6 D750                   MOV.L       L52+4,R7   ; __$buffer$59
    000003D8 064C                   MOV.B       @(R0,R4),R6
    000003DA 6543                   MOV         R4,R5
    000003DC 7501                   ADD         #1,R5
    000003DE 2F72                   MOV.L       R7,@R15
    000003E0 2760                   MOV.B       R6,@R7
    000003E2 7402                   ADD         #2,R4
    000003E4 60E1                   MOV.W       @R14,R0
    000003E6 4008                   SHLL2       R0
    000003E8 005C                   MOV.B       @(R0,R5),R0
    000003EA 8071                   MOV.B       R0,@(1,R7)
    000003EC 60E1                   MOV.W       @R14,R0
    000003EE 4008                   SHLL2       R0
    000003F0 004C                   MOV.B       @(R0,R4),R0
    000003F2 8072                   MOV.B       R0,@(2,R7)
    000003F4 E020                   MOV         #32,R0     ; H'00000020
    000003F6 8073                   MOV.B       R0,@(3,R7)
    000003F8 7704                   ADD         #4,R7
    000003FA 85E1                   MOV.W       @(2,R14),R0
    000003FC 6473                   MOV         R7,R4
    000003FE BE3A                   BSR         _i2a
    00000400 6503                   MOV         R0,R5
    00000402 67F2                   MOV.L       @R15,R7
    00000404 E02D                   MOV         #45,R0     ; H'0000002D
    00000406 D44B                   MOV.L       L52+32,R4  ; __$months_ger$66
    00000408 8076                   MOV.B       R0,@(6,R7)
    0000040A 85E2                   MOV.W       @(4,R14),R0
    0000040C 6543                   MOV         R4,R5
    0000040E 7501                   ADD         #1,R5
    00000410 4008                   SHLL2       R0
    00000412 004C                   MOV.B       @(R0,R4),R0
    00000414 7402                   ADD         #2,R4
    00000416 8077                   MOV.B       R0,@(7,R7)
    00000418 85E2                   MOV.W       @(4,R14),R0
    0000041A 4008                   SHLL2       R0
    0000041C 005C                   MOV.B       @(R0,R5),R0
    0000041E 65D3                   MOV         R13,R5
    00000420 8078                   MOV.B       R0,@(8,R7)
    00000422 85E2                   MOV.W       @(4,R14),R0
    00000424 4008                   SHLL2       R0
    00000426 004C                   MOV.B       @(R0,R4),R0
    00000428 8079                   MOV.B       R0,@(9,R7)
    0000042A E02D                   MOV         #45,R0     ; H'0000002D
    0000042C 807A                   MOV.B       R0,@(10,R7)
    0000042E 770B                   ADD         #11,R7
    00000430 BE3D                   BSR         _i4a
    00000432 6473                   MOV         R7,R4
    00000434 67F2                   MOV.L       @R15,R7
    00000436 E000                   MOV         #0,R0      ; H'00000000
    00000438 A123                   BRA         L38
    0000043A 807F                   MOV.B       R0,@(15,R7)
    0000043C              L31:
    0000043C 60E1                   MOV.W       @R14,R0
    0000043E D435                   MOV.L       L52,R4     ; __$days$58
    00000440 4008                   SHLL2       R0
    00000442 D735                   MOV.L       L52+4,R7   ; __$buffer$59
    00000444 064C                   MOV.B       @(R0,R4),R6
    00000446 6543                   MOV         R4,R5
    00000448 7501                   ADD         #1,R5
    0000044A 2F72                   MOV.L       R7,@R15
    0000044C 2760                   MOV.B       R6,@R7
    0000044E 7402                   ADD         #2,R4
    00000450 60E1                   MOV.W       @R14,R0
    00000452 4008                   SHLL2       R0
    00000454 005C                   MOV.B       @(R0,R5),R0
    00000456 8071                   MOV.B       R0,@(1,R7)
    00000458 60E1                   MOV.W       @R14,R0
    0000045A 4008                   SHLL2       R0
    0000045C 004C                   MOV.B       @(R0,R4),R0
    0000045E 8072                   MOV.B       R0,@(2,R7)
    00000460 E020                   MOV         #32,R0     ; H'00000020
    00000462 8073                   MOV.B       R0,@(3,R7)
    00000464 7704                   ADD         #4,R7
    00000466 85E1                   MOV.W       @(2,R14),R0
    00000468 6473                   MOV         R7,R4
    0000046A BE04                   BSR         _i2a
    0000046C 6503                   MOV         R0,R5
    0000046E 67F2                   MOV.L       @R15,R7
    00000470 E02D                   MOV         #45,R0     ; H'0000002D
    00000472 D431                   MOV.L       L52+36,R4  ; __$months_spa$67
    00000474 8076                   MOV.B       R0,@(6,R7)
    00000476 85E2                   MOV.W       @(4,R14),R0
    00000478 6543                   MOV         R4,R5
    0000047A 7501                   ADD         #1,R5
    0000047C 4008                   SHLL2       R0
    0000047E 004C                   MOV.B       @(R0,R4),R0
    00000480 7402                   ADD         #2,R4
    00000482 8077                   MOV.B       R0,@(7,R7)
    00000484 85E2                   MOV.W       @(4,R14),R0
    00000486 4008                   SHLL2       R0
    00000488 005C                   MOV.B       @(R0,R5),R0
    0000048A 65D3                   MOV         R13,R5
    0000048C 8078                   MOV.B       R0,@(8,R7)
    0000048E 85E2                   MOV.W       @(4,R14),R0
    00000490 4008                   SHLL2       R0
    00000492 004C                   MOV.B       @(R0,R4),R0
    00000494 8079                   MOV.B       R0,@(9,R7)
    00000496 E02D                   MOV         #45,R0     ; H'0000002D
    00000498 807A                   MOV.B       R0,@(10,R7)
    0000049A 770B                   ADD         #11,R7
    0000049C BE07                   BSR         _i4a
    0000049E 6473                   MOV         R7,R4
    000004A0 67F2                   MOV.L       @R15,R7
    000004A2 E000                   MOV         #0,R0      ; H'00000000
    000004A4 A0ED                   BRA         L38
    000004A6 807F                   MOV.B       R0,@(15,R7)
    000004A8              L32:
    000004A8 60E1                   MOV.W       @R14,R0
    000004AA D41A                   MOV.L       L52,R4     ; __$days$58
    000004AC 4008                   SHLL2       R0
    000004AE D71A                   MOV.L       L52+4,R7   ; __$buffer$59
    000004B0 064C                   MOV.B       @(R0,R4),R6
    000004B2 6543                   MOV         R4,R5
    000004B4 7501                   ADD         #1,R5
    000004B6 2F72                   MOV.L       R7,@R15
    000004B8 2760                   MOV.B       R6,@R7
    000004BA 7402                   ADD         #2,R4
    000004BC 60E1                   MOV.W       @R14,R0
    000004BE 4008                   SHLL2       R0
    000004C0 005C                   MOV.B       @(R0,R5),R0
    000004C2 8071                   MOV.B       R0,@(1,R7)
    000004C4 60E1                   MOV.W       @R14,R0
    000004C6 4008                   SHLL2       R0
    000004C8 004C                   MOV.B       @(R0,R4),R0
    000004CA 8072                   MOV.B       R0,@(2,R7)
    000004CC E020                   MOV         #32,R0     ; H'00000020
    000004CE 8073                   MOV.B       R0,@(3,R7)
    000004D0 7704                   ADD         #4,R7
    000004D2 85E1                   MOV.W       @(2,R14),R0
    000004D4 6473                   MOV         R7,R4
    000004D6 BDCE                   BSR         _i2a
    000004D8 6503                   MOV         R0,R5
    000004DA 67F2                   MOV.L       @R15,R7
    000004DC E02D                   MOV         #45,R0     ; H'0000002D
    000004DE D417                   MOV.L       L52+40,R4  ; __$months_swe_dan$68
    000004E0 8076                   MOV.B       R0,@(6,R7)
    000004E2 85E2                   MOV.W       @(4,R14),R0
    000004E4 6543                   MOV         R4,R5
    000004E6 7501                   ADD         #1,R5
    000004E8 4008                   SHLL2       R0
    000004EA 004C                   MOV.B       @(R0,R4),R0
    000004EC 7402                   ADD         #2,R4
    000004EE 8077                   MOV.B       R0,@(7,R7)
    000004F0 85E2                   MOV.W       @(4,R14),R0
    000004F2 4008                   SHLL2       R0
    000004F4 005C                   MOV.B       @(R0,R5),R0
    000004F6 65D3                   MOV         R13,R5
    000004F8 8078                   MOV.B       R0,@(8,R7)
    000004FA 85E2                   MOV.W       @(4,R14),R0
    000004FC 4008                   SHLL2       R0
    000004FE 004C                   MOV.B       @(R0,R4),R0
    00000500 8079                   MOV.B       R0,@(9,R7)
    00000502 E02D                   MOV         #45,R0     ; H'0000002D
    00000504 807A                   MOV.B       R0,@(10,R7)
    00000506 770B                   ADD         #11,R7
    00000508 BDD1                   BSR         _i4a
    0000050A 6473                   MOV         R7,R4
    0000050C 67F2                   MOV.L       @R15,R7
    0000050E E000                   MOV         #0,R0      ; H'00000000
    00000510 A0B7                   BRA         L38
    00000512 807F                   MOV.B       R0,@(15,R7)
    00000514              L52:
    00000514 <00000000>             .DATA.L     __$days$58
    00000518 <00000000>             .DATA.L     __$buffer$59
    0000051C <00000000>             .DATA.L     __$months_eng$60
    00000520 <00000000>             .DATA.L     L61
    00000524 <00000000>             .DATA.L     L62
    00000528 <00000000>             .DATA.L     L63
    0000052C <00000000>             .DATA.L     __$days_jap$64
    00000530 <00000000>             .DATA.L     __$months_fre$65
    00000534 <00000000>             .DATA.L     __$months_ger$66
    00000538 <00000000>             .DATA.L     __$months_spa$67
    0000053C <00000000>             .DATA.L     __$months_swe_dan$68
    00000540              L33:
    00000540 60E1                   MOV.W       @R14,R0
    00000542 D453                   MOV.L       L53+2,R4   ; __$days$58
    00000544 4008                   SHLL2       R0
    00000546 D753                   MOV.L       L53+6,R7   ; __$buffer$59
    00000548 064C                   MOV.B       @(R0,R4),R6
    0000054A 6543                   MOV         R4,R5
    0000054C 7501                   ADD         #1,R5
    0000054E 2F72                   MOV.L       R7,@R15
    00000550 2760                   MOV.B       R6,@R7
    00000552 7402                   ADD         #2,R4
    00000554 60E1                   MOV.W       @R14,R0
    00000556 4008                   SHLL2       R0
    00000558 005C                   MOV.B       @(R0,R5),R0
    0000055A 8071                   MOV.B       R0,@(1,R7)
    0000055C 60E1                   MOV.W       @R14,R0
    0000055E 4008                   SHLL2       R0
    00000560 004C                   MOV.B       @(R0,R4),R0
    00000562 8072                   MOV.B       R0,@(2,R7)
    00000564 E020                   MOV         #32,R0     ; H'00000020
    00000566 8073                   MOV.B       R0,@(3,R7)
    00000568 7704                   ADD         #4,R7
    0000056A 85E1                   MOV.W       @(2,R14),R0
    0000056C 6473                   MOV         R7,R4
    0000056E BD82                   BSR         _i2a
    00000570 6503                   MOV         R0,R5
    00000572 67F2                   MOV.L       @R15,R7
    00000574 E02D                   MOV         #45,R0     ; H'0000002D
    00000576 D448                   MOV.L       L53+10,R4  ; __$months_swe_dan$68
    00000578 8076                   MOV.B       R0,@(6,R7)
    0000057A 85E2                   MOV.W       @(4,R14),R0
    0000057C 6543                   MOV         R4,R5
    0000057E 7501                   ADD         #1,R5
    00000580 4008                   SHLL2       R0
    00000582 004C                   MOV.B       @(R0,R4),R0
    00000584 7402                   ADD         #2,R4
    00000586 8077                   MOV.B       R0,@(7,R7)
    00000588 85E2                   MOV.W       @(4,R14),R0
    0000058A 4008                   SHLL2       R0
    0000058C 005C                   MOV.B       @(R0,R5),R0
    0000058E 65D3                   MOV         R13,R5
    00000590 8078                   MOV.B       R0,@(8,R7)
    00000592 85E2                   MOV.W       @(4,R14),R0
    00000594 4008                   SHLL2       R0
    00000596 004C                   MOV.B       @(R0,R4),R0
    00000598 8079                   MOV.B       R0,@(9,R7)
    0000059A E02D                   MOV         #45,R0     ; H'0000002D
    0000059C 807A                   MOV.B       R0,@(10,R7)
    0000059E 770B                   ADD         #11,R7
    000005A0 BD85                   BSR         _i4a
    000005A2 6473                   MOV         R7,R4
    000005A4 67F2                   MOV.L       @R15,R7
    000005A6 E000                   MOV         #0,R0      ; H'00000000
    000005A8 A06B                   BRA         L38
    000005AA 807F                   MOV.B       R0,@(15,R7)
    000005AC              L34:
    000005AC 60E1                   MOV.W       @R14,R0
    000005AE D438                   MOV.L       L53+2,R4   ; __$days$58
    000005B0 4008                   SHLL2       R0
    000005B2 D738                   MOV.L       L53+6,R7   ; __$buffer$59
    000005B4 064C                   MOV.B       @(R0,R4),R6
    000005B6 6543                   MOV         R4,R5
    000005B8 7501                   ADD         #1,R5
    000005BA 2F72                   MOV.L       R7,@R15
    000005BC 2760                   MOV.B       R6,@R7
    000005BE 7402                   ADD         #2,R4
    000005C0 60E1                   MOV.W       @R14,R0
    000005C2 4008                   SHLL2       R0
    000005C4 005C                   MOV.B       @(R0,R5),R0
    000005C6 8071                   MOV.B       R0,@(1,R7)
    000005C8 60E1                   MOV.W       @R14,R0
    000005CA 4008                   SHLL2       R0
    000005CC 004C                   MOV.B       @(R0,R4),R0
    000005CE 8072                   MOV.B       R0,@(2,R7)
    000005D0 E020                   MOV         #32,R0     ; H'00000020
    000005D2 8073                   MOV.B       R0,@(3,R7)
    000005D4 7704                   ADD         #4,R7
    000005D6 85E1                   MOV.W       @(2,R14),R0
    000005D8 6473                   MOV         R7,R4
    000005DA BD4C                   BSR         _i2a
    000005DC 6503                   MOV         R0,R5
    000005DE 67F2                   MOV.L       @R15,R7
    000005E0 E02D                   MOV         #45,R0     ; H'0000002D
    000005E2 D42E                   MOV.L       L53+14,R4  ; __$months_dut$69
    000005E4 8076                   MOV.B       R0,@(6,R7)
    000005E6 85E2                   MOV.W       @(4,R14),R0
    000005E8 6543                   MOV         R4,R5
    000005EA 7501                   ADD         #1,R5
    000005EC 4008                   SHLL2       R0
    000005EE 004C                   MOV.B       @(R0,R4),R0
    000005F0 7402                   ADD         #2,R4
    000005F2 8077                   MOV.B       R0,@(7,R7)
    000005F4 85E2                   MOV.W       @(4,R14),R0
    000005F6 4008                   SHLL2       R0
    000005F8 005C                   MOV.B       @(R0,R5),R0
    000005FA 65D3                   MOV         R13,R5
    000005FC 8078                   MOV.B       R0,@(8,R7)
    000005FE 85E2                   MOV.W       @(4,R14),R0
    00000600 4008                   SHLL2       R0
    00000602 004C                   MOV.B       @(R0,R4),R0
    00000604 8079                   MOV.B       R0,@(9,R7)
    00000606 E02D                   MOV         #45,R0     ; H'0000002D
    00000608 807A                   MOV.B       R0,@(10,R7)
    0000060A 770B                   ADD         #11,R7
    0000060C BD4F                   BSR         _i4a
    0000060E 6473                   MOV         R7,R4
    00000610 67F2                   MOV.L       @R15,R7
    00000612 E000                   MOV         #0,R0      ; H'00000000
    00000614 A035                   BRA         L38
    00000616 807F                   MOV.B       R0,@(15,R7)
    00000618              L35:
    00000618 60E1                   MOV.W       @R14,R0
    0000061A D41D                   MOV.L       L53+2,R4   ; __$days$58
    0000061C 4008                   SHLL2       R0
    0000061E D71D                   MOV.L       L53+6,R7   ; __$buffer$59
    00000620 064C                   MOV.B       @(R0,R4),R6
    00000622 6543                   MOV         R4,R5
    00000624 7501                   ADD         #1,R5
    00000626 2F72                   MOV.L       R7,@R15
    00000628 2760                   MOV.B       R6,@R7
    0000062A 7402                   ADD         #2,R4
    0000062C 60E1                   MOV.W       @R14,R0
    0000062E 4008                   SHLL2       R0
    00000630 005C                   MOV.B       @(R0,R5),R0
    00000632 8071                   MOV.B       R0,@(1,R7)
    00000634 60E1                   MOV.W       @R14,R0
    00000636 4008                   SHLL2       R0
    00000638 004C                   MOV.B       @(R0,R4),R0
    0000063A 8072                   MOV.B       R0,@(2,R7)
    0000063C E020                   MOV         #32,R0     ; H'00000020
    0000063E 8073                   MOV.B       R0,@(3,R7)
    00000640 7704                   ADD         #4,R7
    00000642 85E1                   MOV.W       @(2,R14),R0
    00000644 6473                   MOV         R7,R4
    00000646 BD16                   BSR         _i2a
    00000648 6503                   MOV         R0,R5
    0000064A 67F2                   MOV.L       @R15,R7
    0000064C E02D                   MOV         #45,R0     ; H'0000002D
    0000064E D414                   MOV.L       L53+18,R4  ; __$months_fin$70
    00000650 8076                   MOV.B       R0,@(6,R7)
    00000652 85E2                   MOV.W       @(4,R14),R0
    00000654 6543                   MOV         R4,R5
    00000656 7501                   ADD         #1,R5
    00000658 4008                   SHLL2       R0
    0000065A 004C                   MOV.B       @(R0,R4),R0
    0000065C 7402                   ADD         #2,R4
    0000065E 8077                   MOV.B       R0,@(7,R7)
    00000660 85E2                   MOV.W       @(4,R14),R0
    00000662 4008                   SHLL2       R0
    00000664 005C                   MOV.B       @(R0,R5),R0
    00000666 65D3                   MOV         R13,R5
    00000668 8078                   MOV.B       R0,@(8,R7)
    0000066A 85E2                   MOV.W       @(4,R14),R0
    0000066C 4008                   SHLL2       R0
    0000066E 004C                   MOV.B       @(R0,R4),R0
    00000670 8079                   MOV.B       R0,@(9,R7)
    00000672 E02D                   MOV         #45,R0     ; H'0000002D
    00000674 807A                   MOV.B       R0,@(10,R7)
    00000676 770B                   ADD         #11,R7
    00000678 BD19                   BSR         _i4a
    0000067A 6473                   MOV         R7,R4
    0000067C 67F2                   MOV.L       @R15,R7
    0000067E E000                   MOV         #0,R0      ; H'00000000
    00000680 807F                   MOV.B       R0,@(15,R7)
    00000682              L38:
    00000682 D004                   MOV.L       L53+6,R0   ; __$buffer$59
    00000684 7F04                   ADD         #4,R15
    00000686 4F26                   LDS.L       @R15+,PR
    00000688 6EF6                   MOV.L       @R15+,R14
    0000068A 000B                   RTS
    0000068C 6DF6                   MOV.L       @R15+,R13
    0000068E              L53:
    0000068E 00000002               .RES.W      1
    00000690 <00000000>             .DATA.L     __$days$58
    00000694 <00000000>             .DATA.L     __$buffer$59
    00000698 <00000000>             .DATA.L     __$months_swe_dan$68
    0000069C <00000000>             .DATA.L     __$months_dut$69
    000006A0 <00000000>             .DATA.L     __$months_fin$70
D   00000000              _country_flag:                   ; static: country_flag
    00000000 00000001               .DATA.L     H'00000001
    00000004              __$days$58:                      ; static: __$days$58
    00000004 53756E                 .SDATA      "Sun"
    00000007 00                     .DATA.B     H'00
    00000008 4D6F6E                 .SDATA      "Mon"
    0000000B 00                     .DATA.B     H'00
    0000000C 547565                 .SDATA      "Tue"
    0000000F 00                     .DATA.B     H'00
    00000010 576564                 .SDATA      "Wed"
    00000013 00                     .DATA.B     H'00
    00000014 546875                 .SDATA      "Thu"
    00000017 00                     .DATA.B     H'00
    00000018 467269                 .SDATA      "Fri"
    0000001B 00                     .DATA.B     H'00
    0000001C 536174                 .SDATA      "Sat"
    0000001F 00                     .DATA.B     H'00
    00000020              __$days_jap$64:                  ; static: __$days_jap$64
    00000020 28                     .SDATA      "("
    00000021 93FA                   .DATA.B     H'93,H'FA
    00000023 29                     .SDATA      ")"
    00000024 00                     .DATA.B     H'00
    00000025 28                     .SDATA      "("
    00000026 8C8E                   .DATA.B     H'8C,H'8E
    00000028 29                     .SDATA      ")"
    00000029 00                     .DATA.B     H'00
    0000002A 28                     .SDATA      "("
    0000002B 89CE                   .DATA.B     H'89,H'CE
    0000002D 29                     .SDATA      ")"
    0000002E 00                     .DATA.B     H'00
    0000002F 28                     .SDATA      "("
    00000030 9085                   .DATA.B     H'90,H'85
    00000032 29                     .SDATA      ")"
    00000033 00                     .DATA.B     H'00
    00000034 28                     .SDATA      "("
    00000035 96D8                   .DATA.B     H'96,H'D8
    00000037 29                     .SDATA      ")"
    00000038 00                     .DATA.B     H'00
    00000039 28                     .SDATA      "("
    0000003A 8BE0                   .DATA.B     H'8B,H'E0
    0000003C 29                     .SDATA      ")"
    0000003D 00                     .DATA.B     H'00
    0000003E 28                     .SDATA      "("
    0000003F 93                     .DATA.B     H'93
    00000040 7929                   .SDATA      "y)"
    00000042 00                     .DATA.B     H'00
    00000043              __$months_eng$60:                ; static: __$months_eng$60
    00000043 4A616E                 .SDATA      "Jan"
    00000046 00                     .DATA.B     H'00
    00000047 466562                 .SDATA      "Feb"
    0000004A 00                     .DATA.B     H'00
    0000004B 4D6172                 .SDATA      "Mar"
    0000004E 00                     .DATA.B     H'00
    0000004F 417072                 .SDATA      "Apr"
    00000052 00                     .DATA.B     H'00
    00000053 4D6179                 .SDATA      "May"
    00000056 00                     .DATA.B     H'00
    00000057 4A756E                 .SDATA      "Jun"
    0000005A 00                     .DATA.B     H'00
    0000005B 4A756C                 .SDATA      "Jul"
    0000005E 00                     .DATA.B     H'00
    0000005F 417567                 .SDATA      "Aug"
    00000062 00                     .DATA.B     H'00
    00000063 536570                 .SDATA      "Sep"
    00000066 00                     .DATA.B     H'00
    00000067 4F6374                 .SDATA      "Oct"
    0000006A 00                     .DATA.B     H'00
    0000006B 4E6F76                 .SDATA      "Nov"
    0000006E 00                     .DATA.B     H'00
    0000006F 446563                 .SDATA      "Dec"
    00000072 00                     .DATA.B     H'00
    00000073              __$months_fre$65:                ; static: __$months_fre$65
    00000073 4A616E                 .SDATA      "Jan"
    00000076 00                     .DATA.B     H'00
    00000077 466576                 .SDATA      "Fev"
    0000007A 00                     .DATA.B     H'00
    0000007B 4D6172                 .SDATA      "Mar"
    0000007E 00                     .DATA.B     H'00
    0000007F 417672                 .SDATA      "Avr"
    00000082 00                     .DATA.B     H'00
    00000083 4D6169                 .SDATA      "Mai"
    00000086 00                     .DATA.B     H'00
    00000087 4A756E                 .SDATA      "Jun"
    0000008A 00                     .DATA.B     H'00
    0000008B 4A756C                 .SDATA      "Jul"
    0000008E 00                     .DATA.B     H'00
    0000008F 416F76                 .SDATA      "Aov"
    00000092 00                     .DATA.B     H'00
    00000093 536570                 .SDATA      "Sep"
    00000096 00                     .DATA.B     H'00
    00000097 4F6374                 .SDATA      "Oct"
    0000009A 00                     .DATA.B     H'00
    0000009B 4E6F76                 .SDATA      "Nov"
    0000009E 00                     .DATA.B     H'00
    0000009F 446563                 .SDATA      "Dec"
    000000A2 00                     .DATA.B     H'00
    000000A3              __$months_ger$66:                ; static: __$months_ger$66
    000000A3 4A616E                 .SDATA      "Jan"
    000000A6 00                     .DATA.B     H'00
    000000A7 466562                 .SDATA      "Feb"
    000000AA 00                     .DATA.B     H'00
    000000AB 4D6172                 .SDATA      "Mar"
    000000AE 00                     .DATA.B     H'00
    000000AF 417072                 .SDATA      "Apr"
    000000B2 00                     .DATA.B     H'00
    000000B3 4D6169                 .SDATA      "Mai"
    000000B6 00                     .DATA.B     H'00
    000000B7 4A756E                 .SDATA      "Jun"
    000000BA 00                     .DATA.B     H'00
    000000BB 4A756C                 .SDATA      "Jul"
    000000BE 00                     .DATA.B     H'00
    000000BF 417567                 .SDATA      "Aug"
    000000C2 00                     .DATA.B     H'00
    000000C3 536570                 .SDATA      "Sep"
    000000C6 00                     .DATA.B     H'00
    000000C7 4F6B74                 .SDATA      "Okt"
    000000CA 00                     .DATA.B     H'00
    000000CB 4E6F76                 .SDATA      "Nov"
    000000CE 00                     .DATA.B     H'00
    000000CF 44657A                 .SDATA      "Dez"
    000000D2 00                     .DATA.B     H'00
    000000D3              __$months_spa$67:                ; static: __$months_spa$67
    000000D3 456E65                 .SDATA      "Ene"
    000000D6 00                     .DATA.B     H'00
    000000D7 466562                 .SDATA      "Feb"
    000000DA 00                     .DATA.B     H'00
    000000DB 4D6172                 .SDATA      "Mar"
    000000DE 00                     .DATA.B     H'00
    000000DF 416272                 .SDATA      "Abr"
    000000E2 00                     .DATA.B     H'00
    000000E3 4D6179                 .SDATA      "May"
    000000E6 00                     .DATA.B     H'00
    000000E7 4A756E                 .SDATA      "Jun"
    000000EA 00                     .DATA.B     H'00
    000000EB 4A756C                 .SDATA      "Jul"
    000000EE 00                     .DATA.B     H'00
    000000EF 41676F                 .SDATA      "Ago"
    000000F2 00                     .DATA.B     H'00
    000000F3 536570                 .SDATA      "Sep"
    000000F6 00                     .DATA.B     H'00
    000000F7 4F6374                 .SDATA      "Oct"
    000000FA 00                     .DATA.B     H'00
    000000FB 4E6F76                 .SDATA      "Nov"
    000000FE 00                     .DATA.B     H'00
    000000FF 446963                 .SDATA      "Dic"
    00000102 00                     .DATA.B     H'00
    00000103              __$months_swe_dan$68:            ; static: __$months_swe_dan$68
    00000103 4A616E                 .SDATA      "Jan"
    00000106 00                     .DATA.B     H'00
    00000107 466562                 .SDATA      "Feb"
    0000010A 00                     .DATA.B     H'00
    0000010B 4D6172                 .SDATA      "Mar"
    0000010E 00                     .DATA.B     H'00
    0000010F 417072                 .SDATA      "Apr"
    00000112 00                     .DATA.B     H'00
    00000113 4D616A                 .SDATA      "Maj"
    00000116 00                     .DATA.B     H'00
    00000117 4A756E                 .SDATA      "Jun"
    0000011A 00                     .DATA.B     H'00
    0000011B 4A756C                 .SDATA      "Jul"
    0000011E 00                     .DATA.B     H'00
    0000011F 417567                 .SDATA      "Aug"
    00000122 00                     .DATA.B     H'00
    00000123 536570                 .SDATA      "Sep"
    00000126 00                     .DATA.B     H'00
    00000127 4F6B74                 .SDATA      "Okt"
    0000012A 00                     .DATA.B     H'00
    0000012B 4E6F76                 .SDATA      "Nov"
    0000012E 00                     .DATA.B     H'00
    0000012F 446563                 .SDATA      "Dec"
    00000132 00                     .DATA.B     H'00
    00000133              __$months_dut$69:                ; static: __$months_dut$69
    00000133 4A616E                 .SDATA      "Jan"
    00000136 00                     .DATA.B     H'00
    00000137 466562                 .SDATA      "Feb"
    0000013A 00                     .DATA.B     H'00
    0000013B 4D6172                 .SDATA      "Mar"
    0000013E 00                     .DATA.B     H'00
    0000013F 417072                 .SDATA      "Apr"
    00000142 00                     .DATA.B     H'00
    00000143 4D6169                 .SDATA      "Mai"
    00000146 00                     .DATA.B     H'00
    00000147 4A756E                 .SDATA      "Jun"
    0000014A 00                     .DATA.B     H'00
    0000014B 4A556C                 .SDATA      "JUl"
    0000014E 00                     .DATA.B     H'00
    0000014F 417567                 .SDATA      "Aug"
    00000152 00                     .DATA.B     H'00
    00000153 536570                 .SDATA      "Sep"
    00000156 00                     .DATA.B     H'00
    00000157 4F6374                 .SDATA      "Oct"
    0000015A 00                     .DATA.B     H'00
    0000015B 4E6F76                 .SDATA      "Nov"
    0000015E 00                     .DATA.B     H'00
    0000015F 446563                 .SDATA      "Dec"
    00000162 00                     .DATA.B     H'00
    00000163              __$months_fin$70:                ; static: __$months_fin$70
    00000163 54616D                 .SDATA      "Tam"
    00000166 00                     .DATA.B     H'00
    00000167 48656C                 .SDATA      "Hel"
    0000016A 00                     .DATA.B     H'00
    0000016B 4D6161                 .SDATA      "Maa"
    0000016E 00                     .DATA.B     H'00
    0000016F 487568                 .SDATA      "Huh"
    00000172 00                     .DATA.B     H'00
    00000173 546F75                 .SDATA      "Tou"
    00000176 00                     .DATA.B     H'00
    00000177 4B6573                 .SDATA      "Kes"
    0000017A 00                     .DATA.B     H'00
    0000017B 486569                 .SDATA      "Hei"
    0000017E 00                     .DATA.B     H'00
    0000017F 456C6F                 .SDATA      "Elo"
    00000182 00                     .DATA.B     H'00
    00000183 537979                 .SDATA      "Syy"
    00000186 00                     .DATA.B     H'00
    00000187 4C6F6B                 .SDATA      "Lok"
    0000018A 00                     .DATA.B     H'00
    0000018B 4D6172                 .SDATA      "Mar"
    0000018E 00                     .DATA.B     H'00
    0000018F 4A6F75                 .SDATA      "Jou"
    00000192 00                     .DATA.B     H'00
C   00000000              L61:
    00000000 94                     .DATA.B     H'94
    00000001 4E                     .SDATA      "N"
    00000002 00                     .DATA.B     H'00
    00000003 00                     .DATAB.B    1,0
    00000004              L62:
    00000004 8C8E00                 .DATA.B     H'8C,H'8E,H'00
    00000007 00                     .DATAB.B    1,0
    00000008              L63:
    00000008 93FA00                 .DATA.B     H'93,H'FA,H'00
B   00000000              __$tm$55:                        ; static: __$tm$55
    00000000 00000002               .RES.W      4
    00000008              __$buffer$56:                    ; static: __$buffer$56
    00000008 00000001               .RES.B      10
    00000012              __$tm$57:                        ; static: __$tm$57
    00000012 00000002               .RES.W      4
    0000001A              __$buffer$59:                    ; static: __$buffer$59
    0000001A 00000001               .RES.B      22
SH SERIES C/C++ Compiler (Ver. checker(2003.03.17))                                              03-Feb-2004 12:21:53  PAGE    1


******** STATISTICS INFORMATION ********


********** ERROR INFORMATION ***********

NUMBER OF ERRORS:           0
NUMBER OF WARNINGS:         0
NUMBER OF INFORMATIONS:     0



******* SOURCE LINE INFORMATION ********

COMPILED SOURCE LINE:      362



******* SECTION SIZE INFORMATION *******

PROGRAM  SECTION (P):                               000006A4 Byte(s)
CONSTANT SECTION (C):                               0000000B Byte(s)
DATA     SECTION (D):                               00000193 Byte(s)
BSS      SECTION (B):                               00000030 Byte(s)

TOTAL PROGRAM  SECTION: 000006A4 Byte(s)
TOTAL CONSTANT SECTION: 0000000B Byte(s)
TOTAL DATA     SECTION: 00000193 Byte(s)
TOTAL BSS      SECTION: 00000030 Byte(s)

    TOTAL PROGRAM SIZE: 00000872 Byte(s)



********** LABEL INFORMATION ***********

NUMBER OF EXTERNAL REFERENCE SYMBOLS:            0
NUMBER OF EXTERNAL DEFINITION SYMBOLS:          10
NUMBER OF INTERNAL/EXTERNAL SYMBOLS:            30
*** COMMAND PARAMETER ***


  -cpu=sh2 -op=1 -en=big -me -nodebug -comment=nest -l -def=NDEBUG,CPUSH2 -i=P:\PRESTO\SHINC,C:\usr\local\SH\7_1_1\include,P:\PRESTO\NORTI_12\inc ctime.c 

