*** SuperH RISC engine ASSEMBLER Ver. 5.1 ***    01/07/08 14:45:01                                                       PAGE     1
PROGRAM NAME =

    1                               1               .FILE       "P:\PRESTO2\shlib_v7\WCU\BIOS\t0029\comio.c"
    2                               2               .EXPORT     _com_io
    3                               3               .EXPORT     _com_io_err
    4                               4               .EXPORT     _wait66n
    5                               5               .EXPORT     _com_io_init
    6                               6               .EXPORT     _com_io_outp
    7                               7               .EXPORT     _com_io_outp2
    8                               8               .EXPORT     _com_io_inp
    9                               9               .EXPORT     _com_io_inp2
   10                              10               .EXPORT     _com_io_outpb
   11 00000000                     11               .SECTION    P,CODE,ALIGN=4
   12 00000000                     12     _com_io:                         ; function: com_io
   13                              13                                      ; frame size=0
   14 00000000 4F22                14               STS.L       PR,@-R15
   15                              15     ;         MOV.L       #H'000000F0,R1
   16                              16     ;         LDC         R1,SR
   17 00000002 C90F                17               AND         #H'0000000F,R0
   18 00000004 4008                18               SHLL2       R0
   19 00000006 D205                19               MOV.L       #jt_com,R2  ;arrangement Top Address
   20 00000008 302C                20               ADD         R2,R0       ;Add offset_Value
   21 0000000A 6302                21               MOV.L       @R0,R3
   22 0000000C 6033                22               MOV.L       R3,R0
   23 0000000E 8800                23               CMP/EQ      #0,R0
   24 00000010 8906                24               BT          com_exit
   25 00000012 400B                25               JSR         @R0
   26 00000014 0009                26               NOP
   27 00000016 4F26                27               LDS.L       @R15+,PR
   28 00000018 000B                28               RTS
   29 0000001A 0009                29               NOP
   30                                     ***** BEGIN-POOL *****
   31 0000001C 00000000                   DATA FOR SOURCE-LINE 19
   32                                     ***** END-POOL *****
   33 00000020                     30     com_exit:
   34 00000020 D004                31               MOV.L       Lrsxxx,R0   ;com_io_err
   35 00000022 400B                32               JSR         @R0
   36 00000024 0009                33               NOP
   37 00000026 D002                34               MOV.L       #-1,R0      ;システムコールの返り値は -1
   38 00000028 4F26                35               LDS.L       @R15+,PR
   39 0000002A 000B                36               RTS                     ;異常終了
   40 0000002C 0009                37               NOP
   41                                     ***** BEGIN-POOL *****
   42 0000002E 0000                       ALIGNMENT CODE
   43 00000030 FFFFFFFF                   DATA FOR SOURCE-LINE 34
   44                                     ***** END-POOL *****
   45 00000034                     38     Lrsxxx:
   46 00000034 00000000            39               .DATA.L     _com_io_err
   47                              40     
   48 00000038                     41               .ALIGN 4
   49 00000038                     42     jt_com:
   50 00000038 00000000            43               .DATA.L     _com_io_init  ; r0 = 0
   51 0000003C 00000000            44               .DATA.L     _com_io_outp  ; r0 = 1
   52 00000040 00000000            45               .DATA.L     _com_io_outp2 ; r0 = 2
   53 00000044 00000000            46               .DATA.L     _com_io_inp   ; r0 = 3
   54 00000048 00000000            47               .DATA.L     _com_io_inp2  ; r0 = 4
   55 0000004C 00000000            48               .DATA.L     _com_io_outpb ; r0 = 5
   56 00000050 00000000            49               .DATA.L     0             ; none
   57 00000054 00000000            50               .DATA.L     0             ; none
*** SuperH RISC engine ASSEMBLER Ver. 5.1 ***    01/07/08 14:45:01                                                       PAGE     2
PROGRAM NAME =

   58 00000058 00000000            51               .DATA.L     0             ; none
   59 0000005C 00000000            52               .DATA.L     0             ; none
   60 00000060 00000000            53               .DATA.L     0             ; none
   61 00000064 00000000            54               .DATA.L     0             ; none
   62 00000068 00000000            55               .DATA.L     0             ; none
   63 0000006C 00000000            56               .DATA.L     0             ; none
   64 00000070 00000000            57               .DATA.L     0             ; none
   65 00000074 00000000            58               .DATA.L     0             ; none
   66 00000078                     59               .ALIGN      4
   67 00000078 000B                60               RTS
   68 0000007A 0009                61               NOP
   69 0000007C                     62     _com_io_err:                     ; function: com_io_err
   70                              63                                      ; frame size=0
   71 0000007C 000B                64               RTS
   72 0000007E E000                65               MOV         #0,R0      ; H'00000000
   73 00000080                     66     _wait66n:                        ; function: wait66n
   74                              67                                      ; frame size=0
   75 00000080 6643                68               MOV         R4,R6
   76 00000082 76FF                69               ADD         #-1,R6
   77 00000084 3467                70               CMP/GT      R6,R4
   78 00000086 8B07                71               BF          L14
   79 00000088 4615                72               CMP/PL      R6
   80 0000008A 8F03                73               BF/S        L15
   81 0000008C E200                74               MOV         #0,R2      ; H'00000000
   82 0000008E                     75     L16:
   83 0000008E 7202                76               ADD         #2,R2
   84 00000090 3263                77               CMP/GE      R6,R2
   85 00000092 8BFC                78               BF          L16
   86 00000094                     79     L15:
   87 00000094 000B                80               RTS
   88 00000096 0009                81               NOP
   89 00000098                     82     L14:
   90 00000098 4415                83               CMP/PL      R4
   91 0000009A 8FFB                84               BF/S        L15
   92 0000009C E200                85               MOV         #0,R2      ; H'00000000
   93 0000009E                     86     L18:
   94 0000009E 7201                87               ADD         #1,R2
   95 000000A0 3243                88               CMP/GE      R4,R2
   96 000000A2 8BFC                89               BF          L18
   97 000000A4 AFF6                90               BRA         L15
   98 000000A6 0009                91               NOP
   99 000000A8                     92     _com_io_init:                    ; function: com_io_init
  100                              93                                      ; frame size=0
  101 000000A8 E302                94               MOV         #2,R3      ; H'00000002
  102 000000AA 3437                95               CMP/GT      R3,R4
  103 000000AC 8B04                96               BF          L21
  104 000000AE E202                97               MOV         #2,R2      ; H'00000002
  105 000000B0                     98     L22:
  106 000000B0 D05F                99               MOV.L       L98+2,R0   ; __$comphy
  107 000000B2 4208               100               SHLL2       R2
  108 000000B4 000B               101               RTS
  109 000000B6 302C               102               ADD         R2,R0
  110 000000B8                    103     L21:
  111 000000B8 AFFA               104               BRA         L22
  112 000000BA 6243               105               MOV         R4,R2
  113 000000BC                    106     _com_io_outp:                    ; function: com_io_outp
  114                             107                                      ; frame size=16
*** SuperH RISC engine ASSEMBLER Ver. 5.1 ***    01/07/08 14:45:01                                                       PAGE     3
PROGRAM NAME =

  115 000000BC 2FC6               108               MOV.L       R12,@-R15
  116 000000BE 2FD6               109               MOV.L       R13,@-R15
  117 000000C0 2FE6               110               MOV.L       R14,@-R15
  118 000000C2 4F22               111               STS.L       PR,@-R15
  119 000000C4 5241               112               MOV.L       @(4,R4),R2
  120 000000C6 6C43               113               MOV         R4,R12
  121 000000C8 E403               114               MOV         #3,R4      ; H'00000003
  122 000000CA 6E53               115               MOV         R5,R14
  123 000000CC 325C               116               ADD         R5,R2
  124 000000CE 6D63               117               MOV         R6,R13
  125 000000D0 BFD6               118               BSR         _wait66n
  126 000000D2 2260               119               MOV.B       R6,@R2
  127 000000D4 60E3               120               MOV         R14,R0
  128 000000D6 8801               121               CMP/EQ      #1,R0
  129 000000D8 8B0C               122               BF          L35
  130 000000DA E2D4               123               MOV         #-44,R2    ; H'FFFFFFD4
  131 000000DC 622C               124               EXTU.B      R2,R2
  132 000000DE                    125     L37:
  133 000000DE 4210               126               DT          R2
  134 000000E0 8BFD               127               BF          L37
  135 000000E2                    128     L38:
  136 000000E2 7C08               129               ADD         #8,R12
  137 000000E4 60E3               130               MOV         R14,R0
  138 000000E6 0CD4               131               MOV.B       R13,@(R0,R12)
  139 000000E8                    132     L39:
  140 000000E8 E000               133               MOV         #0,R0      ; H'00000000
  141 000000EA 4F26               134               LDS.L       @R15+,PR
  142 000000EC 6EF6               135               MOV.L       @R15+,R14
  143 000000EE 6DF6               136               MOV.L       @R15+,R13
  144 000000F0 000B               137               RTS
  145 000000F2 6CF6               138               MOV.L       @R15+,R12
  146 000000F4                    139     L35:
  147 000000F4 2EE8               140               TST         R14,R14
  148 000000F6 89F4               141               BT          L38
  149 000000F8 8802               142               CMP/EQ      #2,R0
  150 000000FA 89F2               143               BT          L38
  151 000000FC 8803               144               CMP/EQ      #3,R0
  152 000000FE 89F0               145               BT          L38
  153 00000100 8804               146               CMP/EQ      #4,R0
  154 00000102 89EE               147               BT          L38
  155 00000104 8805               148               CMP/EQ      #5,R0
  156 00000106 89EC               149               BT          L38
  157 00000108 8806               150               CMP/EQ      #6,R0
  158 0000010A 89EA               151               BT          L38
  159 0000010C AFEC               152               BRA         L39
  160 0000010E 0009               153               NOP
  161 00000110                    154     _com_io_outp2:                   ; function: com_io_outp2
  162                             155                                      ; frame size=24
  163 00000110 2FA6               156               MOV.L       R10,@-R15
  164 00000112 2FB6               157               MOV.L       R11,@-R15
  165 00000114 2FC6               158               MOV.L       R12,@-R15
  166 00000116 2FD6               159               MOV.L       R13,@-R15
  167 00000118 2FE6               160               MOV.L       R14,@-R15
  168 0000011A 4F22               161               STS.L       PR,@-R15
  169 0000011C 5C41               162               MOV.L       @(4,R4),R12
  170 0000011E 6B6D               163               EXTU.W      R6,R11
  171 00000120 E3F8               164               MOV         #-8,R3     ; H'FFFFFFF8
*** SuperH RISC engine ASSEMBLER Ver. 5.1 ***    01/07/08 14:45:01                                                       PAGE     4
PROGRAM NAME =

  172 00000122 6DB3               165               MOV         R11,R13
  173 00000124 3C5C               166               ADD         R5,R12
  174 00000126 6A43               167               MOV         R4,R10
  175 00000128 4D3C               168               SHAD        R3,R13
  176 0000012A 6E53               169               MOV         R5,R14
  177 0000012C 2CD0               170               MOV.B       R13,@R12
  178 0000012E BFA7               171               BSR         _wait66n
  179 00000130 E403               172               MOV         #3,R4      ; H'00000003
  180 00000132 60E3               173               MOV         R14,R0
  181 00000134 8801               174               CMP/EQ      #1,R0
  182 00000136 8B20               175               BF          L67
  183 00000138 E2D4               176               MOV         #-44,R2    ; H'FFFFFFD4
  184 0000013A 622C               177               EXTU.B      R2,R2
  185 0000013C                    178     L69:
  186 0000013C 4210               179               DT          R2
  187 0000013E 8BFD               180               BF          L69
  188 00000140                    181     L70:
  189 00000140 62A3               182               MOV         R10,R2
  190 00000142 7208               183               ADD         #8,R2
  191 00000144 60E3               184               MOV         R14,R0
  192 00000146 02D4               185               MOV.B       R13,@(R0,R2)
  193 00000148                    186     L71:
  194 00000148 52A1               187               MOV.L       @(4,R10),R2
  195 0000014A 60B3               188               MOV         R11,R0
  196 0000014C E403               189               MOV         #3,R4      ; H'00000003
  197 0000014E 32EC               190               ADD         R14,R2
  198 00000150 8021               191               MOV.B       R0,@(1,R2)
  199 00000152 BF95               192               BSR         _wait66n
  200 00000154 7E01               193               ADD         #1,R14
  201 00000156 60E3               194               MOV         R14,R0
  202 00000158 8801               195               CMP/EQ      #1,R0
  203 0000015A 8B20               196               BF          L72
  204 0000015C E2D4               197               MOV         #-44,R2    ; H'FFFFFFD4
  205 0000015E 622C               198               EXTU.B      R2,R2
  206 00000160                    199     L74:
  207 00000160 4210               200               DT          R2
  208 00000162 8BFD               201               BF          L74
  209 00000164                    202     L75:
  210 00000164 7A08               203               ADD         #8,R10
  211 00000166 60E3               204               MOV         R14,R0
  212 00000168 0AB4               205               MOV.B       R11,@(R0,R10)
  213 0000016A                    206     L76:
  214 0000016A E000               207               MOV         #0,R0      ; H'00000000
  215 0000016C 4F26               208               LDS.L       @R15+,PR
  216 0000016E 6EF6               209               MOV.L       @R15+,R14
  217 00000170 6DF6               210               MOV.L       @R15+,R13
  218 00000172 6CF6               211               MOV.L       @R15+,R12
  219 00000174 6BF6               212               MOV.L       @R15+,R11
  220 00000176 000B               213               RTS
  221 00000178 6AF6               214               MOV.L       @R15+,R10
  222 0000017A                    215     L67:
  223 0000017A 2EE8               216               TST         R14,R14
  224 0000017C 89E0               217               BT          L70
  225 0000017E 8802               218               CMP/EQ      #2,R0
  226 00000180 89DE               219               BT          L70
  227 00000182 8803               220               CMP/EQ      #3,R0
  228 00000184 89DC               221               BT          L70
*** SuperH RISC engine ASSEMBLER Ver. 5.1 ***    01/07/08 14:45:01                                                       PAGE     5
PROGRAM NAME =

  229 00000186 8804               222               CMP/EQ      #4,R0
  230 00000188 89DA               223               BT          L70
  231 0000018A 8805               224               CMP/EQ      #5,R0
  232 0000018C 89D8               225               BT          L70
  233 0000018E 8806               226               CMP/EQ      #6,R0
  234 00000190 89D6               227               BT          L70
  235 00000192 60E3               228               MOV         R14,R0
  236 00000194 8807               229               CMP/EQ      #7,R0
  237 00000196 8BD7               230               BF          L71
  238 00000198 60B3               231               MOV         R11,R0
  239 0000019A AFD5               232               BRA         L71
  240 0000019C 80C1               233               MOV.B       R0,@(1,R12)
  241 0000019E                    234     L72:
  242 0000019E 2EE8               235               TST         R14,R14
  243 000001A0 89E0               236               BT          L75
  244 000001A2 8802               237               CMP/EQ      #2,R0
  245 000001A4 89DE               238               BT          L75
  246 000001A6 8803               239               CMP/EQ      #3,R0
  247 000001A8 89DC               240               BT          L75
  248 000001AA 8804               241               CMP/EQ      #4,R0
  249 000001AC 89DA               242               BT          L75
  250 000001AE 8805               243               CMP/EQ      #5,R0
  251 000001B0 89D8               244               BT          L75
  252 000001B2 8806               245               CMP/EQ      #6,R0
  253 000001B4 89D6               246               BT          L75
  254 000001B6 AFD8               247               BRA         L76
  255 000001B8 0009               248               NOP
  256 000001BA                    249     _com_io_inp:                     ; function: com_io_inp
  257                             250                                      ; frame size=8
  258 000001BA 2FE6               251               MOV.L       R14,@-R15
  259 000001BC 4F22               252               STS.L       PR,@-R15
  260 000001BE 5241               253               MOV.L       @(4,R4),R2
  261 000001C0 E403               254               MOV         #3,R4      ; H'00000003
  262 000001C2 325C               255               ADD         R5,R2
  263 000001C4 BF5C               256               BSR         _wait66n
  264 000001C6 6E20               257               MOV.B       @R2,R14
  265 000001C8 60EC               258               EXTU.B      R14,R0
  266 000001CA 4F26               259               LDS.L       @R15+,PR
  267 000001CC 000B               260               RTS
  268 000001CE 6EF6               261               MOV.L       @R15+,R14
  269 000001D0                    262     _com_io_inp2:                    ; function: com_io_inp2
  270                             263                                      ; frame size=20
  271 000001D0 2FD6               264               MOV.L       R13,@-R15
  272 000001D2 2FE6               265               MOV.L       R14,@-R15
  273 000001D4 4F22               266               STS.L       PR,@-R15
  274 000001D6 7FF8               267               ADD         #-8,R15
  275 000001D8 5241               268               MOV.L       @(4,R4),R2
  276 000001DA 6E43               269               MOV         R4,R14
  277 000001DC E403               270               MOV         #3,R4      ; H'00000003
  278 000001DE 6D53               271               MOV         R5,R13
  279 000001E0 325C               272               ADD         R5,R2
  280 000001E2 6620               273               MOV.B       @R2,R6
  281 000001E4 BF4C               274               BSR         _wait66n
  282 000001E6 2F60               275               MOV.B       R6,@R15
  283 000001E8 52E1               276               MOV.L       @(4,R14),R2
  284 000001EA E403               277               MOV         #3,R4      ; H'00000003
  285 000001EC 32DC               278               ADD         R13,R2
*** SuperH RISC engine ASSEMBLER Ver. 5.1 ***    01/07/08 14:45:01                                                       PAGE     6
PROGRAM NAME =

  286 000001EE 7201               279               ADD         #1,R2
  287 000001F0 6020               280               MOV.B       @R2,R0
  288 000001F2 BF45               281               BSR         _wait66n
  289 000001F4 80F4               282               MOV.B       R0,@(4,R15)
  290 000001F6 66F0               283               MOV.B       @R15,R6
  291 000001F8 84F4               284               MOV.B       @(4,R15),R0
  292 000001FA 626C               285               EXTU.B      R6,R2
  293 000001FC 4218               286               SHLL8       R2
  294 000001FE 600C               287               EXTU.B      R0,R0
  295 00000200 202B               288               OR          R2,R0
  296 00000202 7F08               289               ADD         #8,R15
  297 00000204 4F26               290               LDS.L       @R15+,PR
  298 00000206 6EF6               291               MOV.L       @R15+,R14
  299 00000208 000B               292               RTS
  300 0000020A 6DF6               293               MOV.L       @R15+,R13
  301 0000020C                    294     _com_io_outpb:                   ; function: com_io_outpb
  302                             295                                      ; frame size=0
  303 0000020C 6153               296               MOV         R5,R1
  304 0000020E 5541               297               MOV.L       @(4,R4),R5
  305 00000210 7408               298               ADD         #8,R4
  306 00000212 6013               299               MOV         R1,R0
  307 00000214 024C               300               MOV.B       @(R0,R4),R2
  308 00000216 6667               301               NOT         R6,R6
  309 00000218 351C               302               ADD         R1,R5
  310 0000021A 2629               303               AND         R2,R6
  311 0000021C 267B               304               OR          R7,R6
  312 0000021E 2560               305               MOV.B       R6,@R5
  313 00000220 E203               306               MOV         #3,R2      ; H'00000003
  314 00000222                    307     L96:
  315 00000222 4210               308               DT          R2
  316 00000224 8BFD               309               BF          L96
  317 00000226 6013               310               MOV         R1,R0
  318 00000228 0464               311               MOV.B       R6,@(R0,R4)
  319 0000022A 000B               312               RTS
  320 0000022C E000               313               MOV         #0,R0      ; H'00000000
  321 0000022E                    314     L98:
  322 0000022E 00000002           315               .RES.W      1
  323 00000230 00000000           316               .DATA.L     __$comphy
  324 00000000                    317               .SECTION    D,DATA,ALIGN=4
  325 00000000                    318     __$comphy:                       ; static: __$comphy
  326 00000000 B4000000B4010000   319               .DATA.L     H'B4000000,H'B4010000,H'00000000
      00000008 00000000        
  327                             320               .END
  *****TOTAL ERRORS       0
  *****TOTAL WARNINGS     0
*** SuperH RISC engine ASSEMBLER Ver. 5.1 ***    01/07/08 14:45:01                                                       PAGE     7

*** CROSS REFERENCE LIST

NAME                             SECTION  ATTR VALUE             SEQUENCE

D                                D        SCT  00000000    324*
L14                              P             00000098     78    89*
L15                              P             00000094     80    86*   91    97 
L16                              P             0000008E     82*   85 
L18                              P             0000009E     93*   96 
L21                              P             000000B8    103   110*
L22                              P             000000B0    105*  111 
L35                              P             000000F4    129   146*
L37                              P             000000DE    132*  134 
L38                              P             000000E2    135*  148   150   152   154   156   158 
L39                              P             000000E8    139*  159 
L67                              P             0000017A    182   222*
L69                              P             0000013C    185*  187 
L70                              P             00000140    188*  224   226   228   230   232   234 
L71                              P             00000148    193*  237   239 
L72                              P             0000019E    203   241*
L74                              P             00000160    206*  208 
L75                              P             00000164    209*  243   245   247   249   251   253 
L76                              P             0000016A    213*  254 
L96                              P             00000222    314*  316 
L98                              P             0000022E    106   321*
Lrsxxx                           P             00000034     34    45*
P                                P        SCT  00000000     11*
__$comphy                        D             00000000    323   325*
_com_io                          P        EXPT 00000000      2    12*
_com_io_err                      P        EXPT 0000007C      3    46    69*
_com_io_init                     P        EXPT 000000A8      5    50    99*
_com_io_inp                      P        EXPT 000001BA      8    53   256*
_com_io_inp2                     P        EXPT 000001D0      9    54   269*
_com_io_outp                     P        EXPT 000000BC      6    51   113*
_com_io_outp2                    P        EXPT 00000110      7    52   161*
_com_io_outpb                    P        EXPT 0000020C     10    55   301*
_wait66n                         P        EXPT 00000080      4    73*  125   178   199   263   281   288 
com_exit                         P             00000020     24    33*
jt_com                           P             00000038     19    49*
*** SuperH RISC engine ASSEMBLER Ver. 5.1 ***    01/07/08 14:45:01                                                       PAGE     8

*** SECTION DATA LIST

SECTION                          ATTRIBUTE    SIZE             START

P                                REL-CODE    000000234        
D                                REL-DATA    00000000C        
