*** SuperH RISC engine ASSEMBLER Ver. 5.1 ***    01/07/08 14:45:02                                                       PAGE     1
PROGRAM NAME =

    1                               1               .FILE       "P:\PRESTO2\shlib_v7\WCU\BIOS\t0029\fromio.c"
    2                               2               .EXPORT     _flhiadr
    3                               3               .EXPORT     _from_io
    4                               4               .EXPORT     _from_io_err
    5                               5               .EXPORT     _flashrom_init
    6                               6               .EXPORT     _flashrom_pgwr
    7                               7               .EXPORT     _flash_write
    8                               8               .EXPORT     _sect_erase
    9                               9               .EXPORT     _set_mode
   10                              10               .EXPORT     _set_fladr
   11                              11               .EXPORT     _get_polling
   12 00000000                     12               .SECTION    P,CODE,ALIGN=4
   13 00000000                     13     _from_io:                        ; function: from_io
   14                              14                                      ; frame size=0
   15 00000000 4F22                15               STS.L       PR,@-R15
   16                              16     ;         MOV.L       #H'000000F0,R1
   17                              17     ;         LDC         R1,SR
   18 00000002 C90F                18               AND         #H'0000000F,R0
   19 00000004 4008                19               SHLL2       R0
   20 00000006 D205                20               MOV.L       #jt_from,R2  ;arrangement Top Address
   21 00000008 302C                21               ADD         R2,R0       ;Add offset_Value
   22 0000000A 6302                22               MOV.L       @R0,R3
   23 0000000C 6033                23               MOV.L       R3,R0
   24 0000000E 8800                24               CMP/EQ      #0,R0
   25 00000010 8906                25               BT          from_exit
   26 00000012 400B                26               JSR         @R0
   27 00000014 0009                27               NOP
   28 00000016 4F26                28               LDS.L       @R15+,PR
   29 00000018 000B                29               RTS
   30 0000001A 0009                30               NOP
   31                                     ***** BEGIN-POOL *****
   32 0000001C 00000000                   DATA FOR SOURCE-LINE 20
   33                                     ***** END-POOL *****
   34 00000020                     31     from_exit:
   35 00000020 D004                32               MOV.L       Lrsxxx,R0   ;from_io_err
   36 00000022 400B                33               JSR         @R0
   37 00000024 0009                34               NOP
   38 00000026 D002                35               MOV.L       #-1,R0      ;システムコールの返り値は -1
   39 00000028 4F26                36               LDS.L       @R15+,PR
   40 0000002A 000B                37               RTS                     ;異常終了
   41 0000002C 0009                38               NOP
   42                                     ***** BEGIN-POOL *****
   43 0000002E 0000                       ALIGNMENT CODE
   44 00000030 FFFFFFFF                   DATA FOR SOURCE-LINE 35
   45                                     ***** END-POOL *****
   46 00000034                     39     Lrsxxx:
   47 00000034 00000000            40               .DATA.L     _from_io_err
   48                              41     
   49 00000038                     42               .ALIGN 4
   50 00000038                     43     jt_from:
   51 00000038 00000000            44               .DATA.L     _flashrom_init            ; r0 = 0
   52 0000003C 00000000            45               .DATA.L     _flashrom_pgwr            ; r0 = 1
   53 00000040 00000000            46               .DATA.L     _flash_write                      ; r0 = 2
   54 00000044 00000000            47               .DATA.L     _sect_erase                       ; r0 = 3
   55 00000048 00000000            48               .DATA.L     _set_mode                         ; r0 = 4
   56 0000004C 00000000            49               .DATA.L     _set_fladr                        ; r0 = 5
   57 00000050 00000000            50               .DATA.L     _get_polling                      ; r0 = 6
*** SuperH RISC engine ASSEMBLER Ver. 5.1 ***    01/07/08 14:45:02                                                       PAGE     2
PROGRAM NAME =

   58 00000054 00000000            51               .DATA.L     0             ; none
   59 00000058 00000000            52               .DATA.L     0             ; none
   60 0000005C 00000000            53               .DATA.L     0             ; none
   61 00000060 00000000            54               .DATA.L     0             ; none
   62 00000064 00000000            55               .DATA.L     0             ; none
   63 00000068 00000000            56               .DATA.L     0             ; none
   64 0000006C 00000000            57               .DATA.L     0             ; none
   65 00000070 00000000            58               .DATA.L     0             ; none
   66 00000074 00000000            59               .DATA.L     0             ; none
   67 00000078                     60               .ALIGN      4
   68 00000078 000B                61               RTS
   69 0000007A 0009                62               NOP
   70 0000007C                     63     _from_io_err:                    ; function: from_io_err
   71                              64                                      ; frame size=0
   72 0000007C 000B                65               RTS
   73 0000007E E000                66               MOV         #0,R0      ; H'00000000
   74 00000080                     67     _flashrom_init:                  ; function: flashrom_init
   75                              68                                      ; frame size=4
   76 00000080 4F22                69               STS.L       PR,@-R15
   77 00000082 D298                70               MOV.L       L64+8,R2   ; H'A01F8000
   78 00000084 E601                71               MOV         #1,R6      ; H'00000001
   79 00000086 2422                72               MOV.L       R2,@R4
   80 00000088 2562                73               MOV.L       R6,@R5
   81 0000008A 6623                74               MOV         R2,R6
   82 0000008C D296                75               MOV.L       L64+12,R2  ; _flhiadr
   83 0000008E 2262                76               MOV.L       R6,@R2
   84 00000090 92BD                77               MOV.W       L63,R2     ; H'F000
   85 00000092 B16D                78               BSR         _set_mode
   86 00000094 642D                79               EXTU.W      R2,R4
   87 00000096 4F26                80               LDS.L       @R15+,PR
   88 00000098 000B                81               RTS
   89 0000009A E000                82               MOV         #0,R0      ; H'00000000
   90 0000009C                     83     _flashrom_pgwr:                  ; function: flashrom_pgwr
   91                              84                                      ; frame size=64
   92 0000009C 2F86                85               MOV.L       R8,@-R15
   93 0000009E 2F96                86               MOV.L       R9,@-R15
   94 000000A0 2FA6                87               MOV.L       R10,@-R15
   95 000000A2 2FB6                88               MOV.L       R11,@-R15
   96 000000A4 2FC6                89               MOV.L       R12,@-R15
   97 000000A6 2FD6                90               MOV.L       R13,@-R15
   98 000000A8 2FE6                91               MOV.L       R14,@-R15
   99 000000AA 4F22                92               STS.L       PR,@-R15
  100 000000AC 7FE0                93               ADD         #-32,R15
  101 000000AE 6843                94               MOV         R4,R8
  102 000000B0 E905                95               MOV         #5,R9      ; H'00000005
  103 000000B2                     96     L17:
  104 000000B2 4910                97               DT          R9
  105 000000B4 896A                98               BT          L19
  106 000000B6 5282                99               MOV.L       @(8,R8),R2
  107 000000B8 6A82               100               MOV.L       @R8,R10
  108 000000BA 6D22               101               MOV.L       @R2,R13
  109 000000BC 5284               102               MOV.L       @(16,R8),R2
  110 000000BE 6E22               103               MOV.L       @R2,R14
  111 000000C0 5283               104               MOV.L       @(12,R8),R2
  112 000000C2 6722               105               MOV.L       @R2,R7
  113 000000C4 5281               106               MOV.L       @(4,R8),R2
  114 000000C6 3E70               107               CMP/EQ      R7,R14
*** SuperH RISC engine ASSEMBLER Ver. 5.1 ***    01/07/08 14:45:02                                                       PAGE     3
PROGRAM NAME =

  115 000000C8 1F73               108               MOV.L       R7,@(12,R15)
  116 000000CA 8F02               109               BF/S        L66
  117 000000CC 1F24               110               MOV.L       R2,@(16,R15)
  118 000000CE A07C               111               BRA         L20
  119 000000D0 0009               112               NOP
  120 000000D2                    113     L66:
  121 000000D2 929C               114               MOV.W       L63,R2     ; H'F000
  122 000000D4 6CD3               115               MOV         R13,R12
  123 000000D6 B14B               116               BSR         _set_mode
  124 000000D8 642D               117               EXTU.W      R2,R4
  125 000000DA D682               118               MOV.L       L64+8,R6   ; H'A01F8000
  126 000000DC 60D3               119               MOV         R13,R0
  127 000000DE C801               120               TST         #1,R0
  128 000000E0 8F75               121               BF/S        L22
  129 000000E2 3C6C               122               ADD         R6,R12
  130 000000E4                    123     L23:
  131 000000E4 E0FF               124               MOV         #-1,R0     ; H'FFFFFFFF
  132 000000E6 56F4               125               MOV.L       @(16,R15),R6
  133 000000E8 81FA               126               MOV.W       R0,@(20,R15)
  134 000000EA 2F01               127               MOV.W       R0,@R15
  135 000000EC 60E3               128               MOV         R14,R0
  136 000000EE 7E01               129               ADD         #1,R14
  137 000000F0 57F3               130               MOV.L       @(12,R15),R7
  138 000000F2 02AC               131               MOV.B       @(R0,R10),R2
  139 000000F4 2E69               132               AND         R6,R14
  140 000000F6 3E70               133               CMP/EQ      R7,R14
  141 000000F8 8D2A               134               BT/S        L25
  142 000000FA 2F20               135               MOV.B       R2,@R15
  143 000000FC 1F91               136               MOV.L       R9,@(4,R15)
  144 000000FE E980               137               MOV         #-128,R9   ; H'FFFFFF80
  145 00000100 4918               138               SHLL8       R9
  146 00000102 6BF3               139               MOV         R15,R11
  147 00000104 7B01               140               ADD         #1,R11
  148 00000106 1F82               141               MOV.L       R8,@(8,R15)
  149 00000108 6997               142               NOT         R9,R9
  150 0000010A D876               143               MOV.L       L64+8,R8   ; H'A01F8000
  151 0000010C                    144     L26:
  152 0000010C 56F4               145               MOV.L       @(16,R15),R6
  153 0000010E 60E3               146               MOV         R14,R0
  154 00000110 7E01               147               ADD         #1,R14
  155 00000112 02AC               148               MOV.B       @(R0,R10),R2
  156 00000114 2E69               149               AND         R6,R14
  157 00000116 3E70               150               CMP/EQ      R7,R14
  158 00000118 8F02               151               BF/S        L67
  159 0000011A 2B20               152               MOV.B       R2,@R11
  160 0000011C A087               153               BRA         L27
  161 0000011E 0009               154               NOP
  162 00000120                    155     L67:
  163 00000120 65F1               156               MOV.W       @R15,R5
  164 00000122 B0AD               157               BSR         _flash_write
  165 00000124 64C3               158               MOV         R12,R4
  166 00000126 2008               159               TST         R0,R0
  167 00000128 8901               160               BT          L68
  168 0000012A A083               161               BRA         L29
  169 0000012C 0009               162               NOP
  170 0000012E                    163     L68:
  171 0000012E 85FA               164               MOV.W       @(20,R15),R0
*** SuperH RISC engine ASSEMBLER Ver. 5.1 ***    01/07/08 14:45:02                                                       PAGE     4
PROGRAM NAME =

  172 00000130 7D02               165               ADD         #2,R13
  173 00000132 56F4               166               MOV.L       @(16,R15),R6
  174 00000134 2D99               167               AND         R9,R13
  175 00000136 2F01               168               MOV.W       R0,@R15
  176 00000138 60E3               169               MOV         R14,R0
  177 0000013A 7E01               170               ADD         #1,R14
  178 0000013C 57F3               171               MOV.L       @(12,R15),R7
  179 0000013E 02AC               172               MOV.B       @(R0,R10),R2
  180 00000140 2E69               173               AND         R6,R14
  181 00000142 3E70               174               CMP/EQ      R7,R14
  182 00000144 6CD3               175               MOV         R13,R12
  183 00000146 3C8C               176               ADD         R8,R12
  184 00000148 8FE0               177               BF/S        L26
  185 0000014A 2F20               178               MOV.B       R2,@R15
  186 0000014C 58F2               179               MOV.L       @(8,R15),R8
  187 0000014E 59F1               180               MOV.L       @(4,R15),R9
  188 00000150                    181     L25:
  189 00000150 65F1               182               MOV.W       @R15,R5
  190 00000152 B095               183               BSR         _flash_write
  191 00000154 64C3               184               MOV         R12,R4
  192 00000156 2008               185               TST         R0,R0
  193 00000158 897C               186               BT          L33
  194 0000015A DD63               187               MOV.L       L64+12,R13 ; _flhiadr
  195 0000015C 64C3               188               MOV         R12,R4
  196 0000015E DE63               189               MOV.L       L64+16,R14 ; H'A0000AAA
  197 00000160 62D2               190               MOV.L       @R13,R2
  198 00000162 9655               191               MOV.W       L63+2,R6   ; H'AA00
  199 00000164 22EB               192               OR          R14,R2
  200 00000166 2261               193               MOV.W       R6,@R2
  201 00000168 62D2               194               MOV.L       @R13,R2
  202 0000016A D661               195               MOV.L       L64+20,R6  ; H'A0000554
  203 0000016C 226B               196               OR          R6,R2
  204 0000016E E655               197               MOV         #85,R6     ; H'00000055
  205 00000170 4618               198               SHLL8       R6
  206 00000172 2261               199               MOV.W       R6,@R2
  207 00000174 62D2               200               MOV.L       @R13,R2
  208 00000176 964A               201               MOV.W       L63,R6     ; H'F000
  209 00000178 22EB               202               OR          R14,R2
  210 0000017A B0BD               203               BSR         _sect_erase
  211 0000017C 2261               204               MOV.W       R6,@R2
  212 0000017E 2008               205               TST         R0,R0
  213 00000180 8B04               206               BF          L19
  214 00000182 65F1               207               MOV.W       @R15,R5
  215 00000184 B07C               208               BSR         _flash_write
  216 00000186 64C3               209               MOV         R12,R4
  217 00000188 2008               210               TST         R0,R0
  218 0000018A 8992               211               BT          L17
  219 0000018C                    212     L19:
  220 0000018C DD56               213               MOV.L       L64+12,R13 ; _flhiadr
  221 0000018E E000               214               MOV         #0,R0      ; H'00000000
  222 00000190 DE56               215               MOV.L       L64+16,R14 ; H'A0000AAA
  223 00000192 62D2               216               MOV.L       @R13,R2
  224 00000194 963C               217               MOV.W       L63+2,R6   ; H'AA00
  225 00000196 22EB               218               OR          R14,R2
  226 00000198 2261               219               MOV.W       R6,@R2
  227 0000019A 62D2               220               MOV.L       @R13,R2
  228 0000019C D654               221               MOV.L       L64+20,R6  ; H'A0000554
*** SuperH RISC engine ASSEMBLER Ver. 5.1 ***    01/07/08 14:45:02                                                       PAGE     5
PROGRAM NAME =

  229 0000019E 226B               222               OR          R6,R2
  230 000001A0 E655               223               MOV         #85,R6     ; H'00000055
  231 000001A2 4618               224               SHLL8       R6
  232 000001A4 2261               225               MOV.W       R6,@R2
  233 000001A6 62D2               226               MOV.L       @R13,R2
  234 000001A8 9631               227               MOV.W       L63,R6     ; H'F000
  235 000001AA 22EB               228               OR          R14,R2
  236 000001AC 2261               229               MOV.W       R6,@R2
  237 000001AE 5283               230               MOV.L       @(12,R8),R2
  238 000001B0 6622               231               MOV.L       @R2,R6
  239 000001B2 5284               232               MOV.L       @(16,R8),R2
  240 000001B4 2262               233               MOV.L       R6,@R2
  241 000001B6                    234     L35:
  242 000001B6 7F20               235               ADD         #32,R15
  243 000001B8 4F26               236               LDS.L       @R15+,PR
  244 000001BA 6EF6               237               MOV.L       @R15+,R14
  245 000001BC 6DF6               238               MOV.L       @R15+,R13
  246 000001BE 6CF6               239               MOV.L       @R15+,R12
  247 000001C0 6BF6               240               MOV.L       @R15+,R11
  248 000001C2 6AF6               241               MOV.L       @R15+,R10
  249 000001C4 69F6               242               MOV.L       @R15+,R9
  250 000001C6 000B               243               RTS
  251 000001C8 68F6               244               MOV.L       @R15+,R8
  252 000001CA                    245     L20:
  253 000001CA AFF4               246               BRA         L35
  254 000001CC E001               247               MOV         #1,R0      ; H'00000001
  255 000001CE                    248     L22:
  256 000001CE E680               249               MOV         #-128,R6   ; H'FFFFFF80
  257 000001D0 60E3               250               MOV         R14,R0
  258 000001D2 4618               251               SHLL8       R6
  259 000001D4 7DFF               252               ADD         #-1,R13
  260 000001D6 6667               253               NOT         R6,R6
  261 000001D8 2D69               254               AND         R6,R13
  262 000001DA D642               255               MOV.L       L64+8,R6   ; H'A01F8000
  263 000001DC 1FD6               256               MOV.L       R13,@(24,R15)
  264 000001DE 7E01               257               ADD         #1,R14
  265 000001E0 3D6C               258               ADD         R6,R13
  266 000001E2 1FD7               259               MOV.L       R13,@(28,R15)
  267 000001E4 64D3               260               MOV         R13,R4
  268 000001E6 65D1               261               MOV.W       @R13,R5
  269 000001E8 2F51               262               MOV.W       R5,@R15
  270 000001EA 00AC               263               MOV.B       @(R0,R10),R0
  271 000001EC 55F4               264               MOV.L       @(16,R15),R5
  272 000001EE 80F1               265               MOV.B       R0,@(1,R15)
  273 000001F0 2E59               266               AND         R5,R14
  274 000001F2 B045               267               BSR         _flash_write
  275 000001F4 65F1               268               MOV.W       @R15,R5
  276 000001F6 2008               269               TST         R0,R0
  277 000001F8 8B0B               270               BF          L37
  278 000001FA 5CF6               271               MOV.L       @(24,R15),R12
  279 000001FC E680               272               MOV         #-128,R6   ; H'FFFFFF80
  280 000001FE 4618               273               SHLL8       R6
  281 00000200 7C02               274               ADD         #2,R12
  282 00000202 6667               275               NOT         R6,R6
  283 00000204 2C69               276               AND         R6,R12
  284 00000206 D637               277               MOV.L       L64+8,R6   ; H'A01F8000
  285 00000208 6DC3               278               MOV         R12,R13
*** SuperH RISC engine ASSEMBLER Ver. 5.1 ***    01/07/08 14:45:02                                                       PAGE     6
PROGRAM NAME =

  286 0000020A AF6B               279               BRA         L23
  287 0000020C 3C6C               280               ADD         R6,R12
  288 0000020E                    281     L63:
  289 0000020E F000               282               .DATA.W     H'F000
  290 00000210 AA00               283               .DATA.W     H'AA00
  291 00000212                    284     L37:
  292 00000212 9263               285               MOV.W       L64,R2     ; H'F000
  293 00000214 B0AC               286               BSR         _set_mode
  294 00000216 642D               287               EXTU.W      R2,R4
  295 00000218 B06E               288               BSR         _sect_erase
  296 0000021A 54F7               289               MOV.L       @(28,R15),R4
  297 0000021C 2008               290               TST         R0,R0
  298 0000021E 8BB5               291               BF          L19
  299 00000220 54F7               292               MOV.L       @(28,R15),R4
  300 00000222 B02D               293               BSR         _flash_write
  301 00000224 65F1               294               MOV.W       @R15,R5
  302 00000226 2008               295               TST         R0,R0
  303 00000228 8BB0               296               BF          L19
  304 0000022A AF42               297               BRA         L17
  305 0000022C 0009               298               NOP
  306 0000022E                    299     L27:
  307 0000022E 58F2               300               MOV.L       @(8,R15),R8
  308 00000230 AF8E               301               BRA         L25
  309 00000232 59F1               302               MOV.L       @(4,R15),R9
  310 00000234                    303     L29:
  311 00000234 9252               304               MOV.W       L64,R2     ; H'F000
  312 00000236 58F2               305               MOV.L       @(8,R15),R8
  313 00000238 642D               306               EXTU.W      R2,R4
  314 0000023A B099               307               BSR         _set_mode
  315 0000023C 59F1               308               MOV.L       @(4,R15),R9
  316 0000023E B05B               309               BSR         _sect_erase
  317 00000240 64C3               310               MOV         R12,R4
  318 00000242 2008               311               TST         R0,R0
  319 00000244 8BA2               312               BF          L19
  320 00000246 65F1               313               MOV.W       @R15,R5
  321 00000248 B01A               314               BSR         _flash_write
  322 0000024A 64C3               315               MOV         R12,R4
  323 0000024C 2008               316               TST         R0,R0
  324 0000024E 8B9D               317               BF          L19
  325 00000250 AF2F               318               BRA         L17
  326 00000252 0009               319               NOP
  327 00000254                    320     L33:
  328 00000254 DD24               321               MOV.L       L64+12,R13 ; _flhiadr
  329 00000256 E001               322               MOV         #1,R0      ; H'00000001
  330 00000258 DE24               323               MOV.L       L64+16,R14 ; H'A0000AAA
  331 0000025A 62D2               324               MOV.L       @R13,R2
  332 0000025C 963F               325               MOV.W       L64+2,R6   ; H'AA00
  333 0000025E 22EB               326               OR          R14,R2
  334 00000260 2261               327               MOV.W       R6,@R2
  335 00000262 62D2               328               MOV.L       @R13,R2
  336 00000264 D622               329               MOV.L       L64+20,R6  ; H'A0000554
  337 00000266 226B               330               OR          R6,R2
  338 00000268 E655               331               MOV         #85,R6     ; H'00000055
  339 0000026A 4618               332               SHLL8       R6
  340 0000026C 2261               333               MOV.W       R6,@R2
  341 0000026E 62D2               334               MOV.L       @R13,R2
  342 00000270 9634               335               MOV.W       L64,R6     ; H'F000
*** SuperH RISC engine ASSEMBLER Ver. 5.1 ***    01/07/08 14:45:02                                                       PAGE     7
PROGRAM NAME =

  343 00000272 22EB               336               OR          R14,R2
  344 00000274 2261               337               MOV.W       R6,@R2
  345 00000276 5283               338               MOV.L       @(12,R8),R2
  346 00000278 6622               339               MOV.L       @R2,R6
  347 0000027A 5284               340               MOV.L       @(16,R8),R2
  348 0000027C AF9B               341               BRA         L35
  349 0000027E 2262               342               MOV.L       R6,@R2
  350 00000280                    343     _flash_write:                    ; function: flash_write
  351                             344                                      ; frame size=4
  352 00000280 2FE6               345               MOV.L       R14,@-R15
  353 00000282 DE19               346               MOV.L       L64+12,R14 ; _flhiadr
  354 00000284 6743               347               MOV         R4,R7
  355 00000286 D619               348               MOV.L       L64+16,R6  ; H'A0000AAA
  356 00000288 615F               349               EXTS.W      R5,R1
  357 0000028A 62E2               350               MOV.L       @R14,R2
  358 0000028C 9427               351               MOV.W       L64+2,R4   ; H'AA00
  359 0000028E 226B               352               OR          R6,R2
  360 00000290 2241               353               MOV.W       R4,@R2
  361 00000292 62E2               354               MOV.L       @R14,R2
  362 00000294 D416               355               MOV.L       L64+20,R4  ; H'A0000554
  363 00000296 224B               356               OR          R4,R2
  364 00000298 E455               357               MOV         #85,R4     ; H'00000055
  365 0000029A 4418               358               SHLL8       R4
  366 0000029C 2241               359               MOV.W       R4,@R2
  367 0000029E 64E2               360               MOV.L       @R14,R4
  368 000002A0 DE14               361               MOV.L       L64+24,R14 ; H'00008000
  369 000002A2 246B               362               OR          R6,R4
  370 000002A4 961C               363               MOV.W       L64+4,R6   ; H'A000
  371 000002A6 21E9               364               AND         R14,R1
  372 000002A8 2461               365               MOV.W       R6,@R4
  373 000002AA E620               366               MOV         #32,R6     ; H'00000020
  374 000002AC 2751               367               MOV.W       R5,@R7
  375 000002AE 4618               368               SHLL8       R6
  376 000002B0                    369     L42:
  377 000002B0 6271               370               MOV.W       @R7,R2
  378 000002B2 652D               371               EXTU.W      R2,R5
  379 000002B4 6253               372               MOV         R5,R2
  380 000002B6 22E9               373               AND         R14,R2
  381 000002B8 3120               374               CMP/EQ      R2,R1
  382 000002BA 890B               375               BT          L43
  383 000002BC 2569               376               AND         R6,R5
  384 000002BE 3560               377               CMP/EQ      R6,R5
  385 000002C0 8BF6               378               BF          L42
  386 000002C2 6671               379               MOV.W       @R7,R6
  387 000002C4 626D               380               EXTU.W      R6,R2
  388 000002C6 22E9               381               AND         R14,R2
  389 000002C8 3120               382               CMP/EQ      R2,R1
  390 000002CA 8B05               383               BF          L47
  391 000002CC E200               384               MOV         #0,R2      ; H'00000000
  392 000002CE                    385     L48:
  393 000002CE 6023               386               MOV         R2,R0
  394 000002D0 000B               387               RTS
  395 000002D2 6EF6               388               MOV.L       @R15+,R14
  396 000002D4                    389     L43:
  397 000002D4 AFFB               390               BRA         L48
  398 000002D6 E200               391               MOV         #0,R2      ; H'00000000
  399 000002D8                    392     L47:
*** SuperH RISC engine ASSEMBLER Ver. 5.1 ***    01/07/08 14:45:02                                                       PAGE     8
PROGRAM NAME =

  400 000002D8 AFF9               393               BRA         L48
  401 000002DA E202               394               MOV         #2,R2      ; H'00000002
  402 000002DC                    395     L64:
  403 000002DC F000               396               .DATA.W     H'F000
  404 000002DE AA00               397               .DATA.W     H'AA00
  405 000002E0 A000               398               .DATA.W     H'A000
  406 000002E2 00000002           399               .RES.W      1
  407 000002E4 A01F8000           400               .DATA.L     H'A01F8000
  408 000002E8 00000000           401               .DATA.L     _flhiadr
  409 000002EC A0000AAA           402               .DATA.L     H'A0000AAA
  410 000002F0 A0000554           403               .DATA.L     H'A0000554
  411 000002F4 00008000           404               .DATA.L     H'00008000
  412 000002F8                    405     _sect_erase:                     ; function: sect_erase
  413                             406                                      ; frame size=8
  414 000002F8 2FE6               407               MOV.L       R14,@-R15
  415 000002FA 7FFC               408               ADD         #-4,R15
  416 000002FC D12B               409               MOV.L       L65+6,R1   ; _flhiadr
  417 000002FE EE55               410               MOV         #85,R14    ; H'00000055
  418 00000300 D62B               411               MOV.L       L65+10,R6  ; H'A0000AAA
  419 00000302 4E18               412               SHLL8       R14
  420 00000304 6212               413               MOV.L       @R1,R2
  421 00000306 974E               414               MOV.W       L65,R7     ; H'AA00
  422 00000308 226B               415               OR          R6,R2
  423 0000030A D52A               416               MOV.L       L65+14,R5  ; H'A0000554
  424 0000030C 2271               417               MOV.W       R7,@R2
  425 0000030E 6212               418               MOV.L       @R1,R2
  426 00000310 225B               419               OR          R5,R2
  427 00000312 22E1               420               MOV.W       R14,@R2
  428 00000314 6212               421               MOV.L       @R1,R2
  429 00000316 9E47               422               MOV.W       L65+2,R14  ; H'8000
  430 00000318 226B               423               OR          R6,R2
  431 0000031A 22E1               424               MOV.W       R14,@R2
  432 0000031C 6E12               425               MOV.L       @R1,R14
  433 0000031E D226               426               MOV.L       L65+18,R2  ; H'AFFFE000
  434 00000320 2E6B               427               OR          R6,R14
  435 00000322 2E71               428               MOV.W       R7,@R14
  436 00000324 2429               429               AND         R2,R4
  437 00000326 6712               430               MOV.L       @R1,R7
  438 00000328 E230               431               MOV         #48,R2     ; H'00000030
  439 0000032A 4218               432               SHLL8       R2
  440 0000032C 275B               433               OR          R5,R7
  441 0000032E E555               434               MOV         #85,R5     ; H'00000055
  442 00000330 4518               435               SHLL8       R5
  443 00000332 2751               436               MOV.W       R5,@R7
  444 00000334 2421               437               MOV.W       R2,@R4
  445 00000336 E420               438               MOV         #32,R4     ; H'00000020
  446 00000338 6712               439               MOV.L       @R1,R7
  447 0000033A 4418               440               SHLL8       R4
  448 0000033C D51F               441               MOV.L       L65+22,R5  ; H'00008000
  449 0000033E 276B               442               OR          R6,R7
  450 00000340                    443     L51:
  451 00000340 6271               444               MOV.W       @R7,R2
  452 00000342 2F21               445               MOV.W       R2,@R15
  453 00000344 622D               446               EXTU.W      R2,R2
  454 00000346 6623               447               MOV         R2,R6
  455 00000348 2659               448               AND         R5,R6
  456 0000034A 3650               449               CMP/EQ      R5,R6
*** SuperH RISC engine ASSEMBLER Ver. 5.1 ***    01/07/08 14:45:02                                                       PAGE     9
PROGRAM NAME =

  457 0000034C 890C               450               BT          L52
  458 0000034E 2249               451               AND         R4,R2
  459 00000350 3240               452               CMP/EQ      R4,R2
  460 00000352 8BF5               453               BF          L51
  461 00000354 6271               454               MOV.W       @R7,R2
  462 00000356 662D               455               EXTU.W      R2,R6
  463 00000358 2659               456               AND         R5,R6
  464 0000035A 3650               457               CMP/EQ      R5,R6
  465 0000035C 8B06               458               BF          L56
  466 0000035E E200               459               MOV         #0,R2      ; H'00000000
  467 00000360                    460     L57:
  468 00000360 6023               461               MOV         R2,R0
  469 00000362 7F04               462               ADD         #4,R15
  470 00000364 000B               463               RTS
  471 00000366 6EF6               464               MOV.L       @R15+,R14
  472 00000368                    465     L52:
  473 00000368 AFFA               466               BRA         L57
  474 0000036A E200               467               MOV         #0,R2      ; H'00000000
  475 0000036C                    468     L56:
  476 0000036C AFF8               469               BRA         L57
  477 0000036E E202               470               MOV         #2,R2      ; H'00000002
  478 00000370                    471     _set_mode:                       ; function: set_mode
  479                             472                                      ; frame size=0
  480 00000370 D70E               473               MOV.L       L65+6,R7   ; _flhiadr
  481 00000372 D60F               474               MOV.L       L65+10,R6  ; H'A0000AAA
  482 00000374 6272               475               MOV.L       @R7,R2
  483 00000376 9516               476               MOV.W       L65,R5     ; H'AA00
  484 00000378 226B               477               OR          R6,R2
  485 0000037A 2251               478               MOV.W       R5,@R2
  486 0000037C 6272               479               MOV.L       @R7,R2
  487 0000037E D50D               480               MOV.L       L65+14,R5  ; H'A0000554
  488 00000380 225B               481               OR          R5,R2
  489 00000382 E555               482               MOV         #85,R5     ; H'00000055
  490 00000384 4518               483               SHLL8       R5
  491 00000386 2251               484               MOV.W       R5,@R2
  492 00000388 6572               485               MOV.L       @R7,R5
  493 0000038A 256B               486               OR          R6,R5
  494 0000038C 000B               487               RTS
  495 0000038E 2541               488               MOV.W       R4,@R5
  496 00000390                    489     _set_fladr:                      ; function: set_fladr
  497                             490                                      ; frame size=0
  498 00000390 D209               491               MOV.L       L65+18,R2  ; H'AFFFE000
  499 00000392 D606               492               MOV.L       L65+6,R6   ; _flhiadr
  500 00000394 2429               493               AND         R2,R4
  501 00000396 000B               494               RTS
  502 00000398 2642               495               MOV.L       R4,@R6
  503 0000039A                    496     _get_polling:                    ; function: get_polling
  504                             497                                      ; frame size=0
  505 0000039A D604               498               MOV.L       L65+6,R6   ; _flhiadr
  506 0000039C 6262               499               MOV.L       @R6,R2
  507 0000039E D604               500               MOV.L       L65+10,R6  ; H'A0000AAA
  508 000003A0 226B               501               OR          R6,R2
  509 000003A2 000B               502               RTS
  510 000003A4 6021               503               MOV.W       @R2,R0
  511 000003A6                    504     L65:
  512 000003A6 AA00               505               .DATA.W     H'AA00
  513 000003A8 8000               506               .DATA.W     H'8000
*** SuperH RISC engine ASSEMBLER Ver. 5.1 ***    01/07/08 14:45:02                                                       PAGE    10
PROGRAM NAME =

  514 000003AA 00000002           507               .RES.W      1
  515 000003AC 00000000           508               .DATA.L     _flhiadr
  516 000003B0 A0000AAA           509               .DATA.L     H'A0000AAA
  517 000003B4 A0000554           510               .DATA.L     H'A0000554
  518 000003B8 AFFFE000           511               .DATA.L     H'AFFFE000
  519 000003BC 00008000           512               .DATA.L     H'00008000
  520 00000000                    513               .SECTION    B,DATA,ALIGN=4
  521 00000000                    514     _flhiadr:                        ; static: flhiadr
  522 00000000 00000004           515               .RES.L      1
  523                             516               .END
  *****TOTAL ERRORS       0
  *****TOTAL WARNINGS     0
*** SuperH RISC engine ASSEMBLER Ver. 5.1 ***    01/07/08 14:45:02                                                       PAGE    11

*** CROSS REFERENCE LIST

NAME                             SECTION  ATTR VALUE             SEQUENCE

B                                B        SCT  00000000    520*
L17                              P             000000B2    103*  218   304   325 
L19                              P             0000018C    105   213   219*  298   303   319   324 
L20                              P             000001CA    118   252*
L22                              P             000001CE    128   255*
L23                              P             000000E4    130*  286 
L25                              P             00000150    141   188*  308 
L26                              P             0000010C    151*  184 
L27                              P             0000022E    160   306*
L29                              P             00000234    168   310*
L33                              P             00000254    193   327*
L35                              P             000001B6    241*  253   348 
L37                              P             00000212    277   291*
L42                              P             000002B0    376*  385 
L43                              P             000002D4    382   396*
L47                              P             000002D8    390   399*
L48                              P             000002CE    392*  397   400 
L51                              P             00000340    450*  460 
L52                              P             00000368    457   472*
L56                              P             0000036C    465   475*
L57                              P             00000360    467*  473   476 
L63                              P             0000020E     84   121   198   208   224   234   288*
L64                              P             000002DC     77    82   125   150   194   196   202   220   222   228   262   284 
                                                           292   311   328   330   332   336   342   353   355   358   362   368 
                                                           370   402*
L65                              P             000003A6    416   418   421   423   429   433   448   480   481   483   487   498 
                                                           499   505   507   511*
L66                              P             000000D2    116   120*
L67                              P             00000120    158   162*
L68                              P             0000012E    167   170*
Lrsxxx                           P             00000034     35    46*
P                                P        SCT  00000000     12*
_flash_write                     P        EXPT 00000280      7    53   164   190   215   274   300   321   350*
_flashrom_init                   P        EXPT 00000080      5    51    74*
_flashrom_pgwr                   P        EXPT 0000009C      6    52    90*
_flhiadr                         B        EXPT 00000000      2   408   515   521*
_from_io                         P        EXPT 00000000      3    13*
_from_io_err                     P        EXPT 0000007C      4    47    70*
_get_polling                     P        EXPT 0000039A     11    57   503*
_sect_erase                      P        EXPT 000002F8      8    54   210   295   316   412*
_set_fladr                       P        EXPT 00000390     10    56   496*
_set_mode                        P        EXPT 00000370      9    55    85   123   293   314   478*
from_exit                        P             00000020     25    34*
jt_from                          P             00000038     20    50*
*** SuperH RISC engine ASSEMBLER Ver. 5.1 ***    01/07/08 14:45:02                                                       PAGE    12

*** SECTION DATA LIST

SECTION                          ATTRIBUTE    SIZE             START

P                                REL-CODE    0000003C0        
B                                REL-DATA    000000004        
