*** SuperH RISC engine ASSEMBLER Ver. 5.1 ***    01/07/08 14:45:03                                                       PAGE     1
PROGRAM NAME =

    1                               1               .FILE       "P:\PRESTO2\shlib_v7\WCU\BIOS\t0029\ppiio.c"
    2                               2               .EXPORT     _pio_io
    3                               3               .EXPORT     _pio_io_err
    4                               4               .EXPORT     _pio_io_init
    5                               5               .EXPORT     _pio_io_out
    6                               6               .EXPORT     _pio_io_in
    7                               7               .EXPORT     _pio_io_bctl
    8                               8               .EXPORT     _pio_icu_info
    9                               9               .EXPORT     _pio_175_out
   10 00000000                     10               .SECTION    P,CODE,ALIGN=4
   11 00000000                     11     _pio_io:                         ; function: pio_io
   12                              12                                      ; frame size=0
   13 00000000 4F22                13               STS.L       PR,@-R15
   14                              14     ;         MOV.L       #H'000000F0,R1
   15                              15     ;         LDC         R1,SR
   16 00000002 C90F                16               AND         #H'0000000F,R0
   17 00000004 4008                17               SHLL2       R0
   18 00000006 D205                18               MOV.L       #jt_pio,R2  ;arrangement Top Address
   19 00000008 302C                19               ADD         R2,R0       ;Add offset_Value
   20 0000000A 6302                20               MOV.L       @R0,R3
   21 0000000C 6033                21               MOV.L       R3,R0
   22 0000000E 8800                22               CMP/EQ      #0,R0
   23 00000010 8906                23               BT          pio_exit
   24 00000012 400B                24               JSR         @R0
   25 00000014 0009                25               NOP
   26 00000016 4F26                26               LDS.L       @R15+,PR
   27 00000018 000B                27               RTS
   28 0000001A 0009                28               NOP
   29                                     ***** BEGIN-POOL *****
   30 0000001C 00000000                   DATA FOR SOURCE-LINE 18
   31                                     ***** END-POOL *****
   32 00000020                     29     pio_exit:
   33 00000020 D004                30               MOV.L       Lrsxxx,R0   ;pio_io_err
   34 00000022 400B                31               JSR         @R0
   35 00000024 0009                32               NOP
   36 00000026 D002                33               MOV.L       #-1,R0      ;システムコールの返り値は -1
   37 00000028 4F26                34               LDS.L       @R15+,PR
   38 0000002A 000B                35               RTS                     ;異常終了
   39 0000002C 0009                36               NOP
   40                                     ***** BEGIN-POOL *****
   41 0000002E 0000                       ALIGNMENT CODE
   42 00000030 FFFFFFFF                   DATA FOR SOURCE-LINE 33
   43                                     ***** END-POOL *****
   44 00000034                     37     Lrsxxx:
   45 00000034 00000000            38               .DATA.L     _pio_io_err
   46                              39     
   47 00000038                     40               .ALIGN 4
   48 00000038                     41     jt_pio:
   49 00000038 00000000            42               .DATA.L     _pio_io_init  ; r0 = 0
   50 0000003C 00000000            43               .DATA.L     _pio_io_out   ; r0 = 1
   51 00000040 00000000            44               .DATA.L     _pio_io_in    ; r0 = 2
   52 00000044 00000000            45               .DATA.L     _pio_io_bctl  ; r0 = 3
   53 00000048 00000000            46               .DATA.L     _pio_icu_info ; r0 = 4
   54 0000004C 00000000            47               .DATA.L     _pio_175_out  ; r0 = 5
   55 00000050 00000000            48               .DATA.L     0             ; none
   56 00000054 00000000            49               .DATA.L     0             ; none
   57 00000058 00000000            50               .DATA.L     0             ; none
*** SuperH RISC engine ASSEMBLER Ver. 5.1 ***    01/07/08 14:45:03                                                       PAGE     2
PROGRAM NAME =

   58 0000005C 00000000            51               .DATA.L     0             ; none
   59 00000060 00000000            52               .DATA.L     0             ; none
   60 00000064 00000000            53               .DATA.L     0             ; none
   61 00000068 00000000            54               .DATA.L     0             ; none
   62 0000006C 00000000            55               .DATA.L     0             ; none
   63 00000070 00000000            56               .DATA.L     0             ; none
   64 00000074 00000000            57               .DATA.L     0             ; none
   65 00000078                     58               .ALIGN      4
   66 00000078 000B                59               RTS
   67 0000007A 0009                60               NOP
   68 0000007C                     61     _pio_io_err:                     ; function: pio_io_err
   69                              62                                      ; frame size=0
   70 0000007C 000B                63               RTS
   71 0000007E E0FF                64               MOV         #-1,R0     ; H'FFFFFFFF
   72 00000080                     65     _pio_io_init:                    ; function: pio_io_init
   73                              66                                      ; frame size=0
   74 00000080 2448                67               TST         R4,R4
   75 00000082 8D11                68               BT/S        L20
   76 00000084 E600                69               MOV         #0,R6      ; H'00000000
   77 00000086 6043                70               MOV         R4,R0
   78 00000088 8801                71               CMP/EQ      #1,R0
   79 0000008A 8914                72               BT          L22
   80 0000008C 6043                73               MOV         R4,R0
   81 0000008E 8802                74               CMP/EQ      #2,R0
   82 00000090 8918                75               BT          L24
   83 00000092 6043                76               MOV         R4,R0
   84 00000094 8803                77               CMP/EQ      #3,R0
   85 00000096 8B1D                78               BF          L26
   86 00000098 E2B0                79               MOV         #-80,R2    ; H'FFFFFFB0
   87 0000009A 4218                80               SHLL8       R2
   88 0000009C 7202                81               ADD         #2,R2
   89 0000009E 4228                82               SHLL16      R2
   90 000000A0 E000                83               MOV         #0,R0      ; H'00000000
   91 000000A2 8023                84               MOV.B       R0,@(3,R2)
   92 000000A4                     85     L27:
   93 000000A4 000B                86               RTS
   94 000000A6 6063                87               MOV         R6,R0
   95 000000A8                     88     L20:
   96 000000A8 E2B0                89               MOV         #-80,R2    ; H'FFFFFFB0
   97 000000AA 4218                90               SHLL8       R2
   98 000000AC 7202                91               ADD         #2,R2
   99 000000AE 4228                92               SHLL16      R2
  100 000000B0 E000                93               MOV         #0,R0      ; H'00000000
  101 000000B2 AFF7                94               BRA         L27
  102 000000B4 8021                95               MOV.B       R0,@(1,R2)
  103 000000B6                     96     L22:
  104 000000B6 E2B0                97               MOV         #-80,R2    ; H'FFFFFFB0
  105 000000B8 4218                98               SHLL8       R2
  106 000000BA 7202                99               ADD         #2,R2
  107 000000BC 4228               100               SHLL16      R2
  108 000000BE E000               101               MOV         #0,R0      ; H'00000000
  109 000000C0 AFF0               102               BRA         L27
  110 000000C2 8022               103               MOV.B       R0,@(2,R2)
  111 000000C4                    104     L24:
  112 000000C4 E2B0               105               MOV         #-80,R2    ; H'FFFFFFB0
  113 000000C6 4218               106               SHLL8       R2
  114 000000C8 7202               107               ADD         #2,R2
*** SuperH RISC engine ASSEMBLER Ver. 5.1 ***    01/07/08 14:45:03                                                       PAGE     3
PROGRAM NAME =

  115 000000CA 4228               108               SHLL16      R2
  116 000000CC E300               109               MOV         #0,R3      ; H'00000000
  117 000000CE 2230               110               MOV.B       R3,@R2
  118 000000D0 AFE8               111               BRA         L27
  119 000000D2 0009               112               NOP
  120 000000D4                    113     L26:
  121 000000D4 AFE6               114               BRA         L27
  122 000000D6 E6FF               115               MOV         #-1,R6     ; H'FFFFFFFF
  123 000000D8                    116     _pio_io_out:                     ; function: pio_io_out
  124                             117                                      ; frame size=8
  125 000000D8 7FF8               118               ADD         #-8,R15
  126 000000DA 4411               119               CMP/PZ      R4
  127 000000DC 2F52               120               MOV.L       R5,@R15
  128 000000DE 6563               121               MOV         R6,R5
  129 000000E0 8F19               122               BF/S        L37
  130 000000E2 E600               123               MOV         #0,R6      ; H'00000000
  131 000000E4 E304               124               MOV         #4,R3      ; H'00000004
  132 000000E6 3433               125               CMP/GE      R3,R4
  133 000000E8 8915               126               BT          L37
  134 000000EA 2448               127               TST         R4,R4
  135 000000EC 8915               128               BT          L40
  136 000000EE 6043               129               MOV         R4,R0
  137 000000F0 8801               130               CMP/EQ      #1,R0
  138 000000F2 8916               131               BT          L42
  139 000000F4 8802               132               CMP/EQ      #2,R0
  140 000000F6 8918               133               BT          L44
  141 000000F8 8803               134               CMP/EQ      #3,R0
  142 000000FA 8B02               135               BF          L46
  143 000000FC D266               136               MOV.L       L121,R2    ; H'B0020003
  144 000000FE 1F21               137               MOV.L       R2,@(4,R15)
  145 00000100 2250               138               MOV.B       R5,@R2
  146 00000102                    139     L46:
  147 00000102 53F1               140               MOV.L       @(4,R15),R3
  148 00000104 655C               141               EXTU.B      R5,R5
  149 00000106 6230               142               MOV.B       @R3,R2
  150 00000108 622C               143               EXTU.B      R2,R2
  151 0000010A 3520               144               CMP/EQ      R2,R5
  152 0000010C 8900               145               BT          L48
  153 0000010E E6FF               146               MOV         #-1,R6     ; H'FFFFFFFF
  154 00000110                    147     L48:
  155 00000110 6063               148               MOV         R6,R0
  156 00000112                    149     L49:
  157 00000112 000B               150               RTS
  158 00000114 7F08               151               ADD         #8,R15
  159 00000116                    152     L37:
  160 00000116 AFFC               153               BRA         L49
  161 00000118 E0FF               154               MOV         #-1,R0     ; H'FFFFFFFF
  162 0000011A                    155     L40:
  163 0000011A D260               156               MOV.L       L121+4,R2  ; H'B0020001
  164 0000011C 1F21               157               MOV.L       R2,@(4,R15)
  165 0000011E AFF0               158               BRA         L46
  166 00000120 2250               159               MOV.B       R5,@R2
  167 00000122                    160     L42:
  168 00000122 D25F               161               MOV.L       L121+8,R2  ; H'B0020002
  169 00000124 1F21               162               MOV.L       R2,@(4,R15)
  170 00000126 AFEC               163               BRA         L46
  171 00000128 2250               164               MOV.B       R5,@R2
*** SuperH RISC engine ASSEMBLER Ver. 5.1 ***    01/07/08 14:45:03                                                       PAGE     4
PROGRAM NAME =

  172 0000012A                    165     L44:
  173 0000012A E2B0               166               MOV         #-80,R2    ; H'FFFFFFB0
  174 0000012C 4218               167               SHLL8       R2
  175 0000012E 7202               168               ADD         #2,R2
  176 00000130 4228               169               SHLL16      R2
  177 00000132 1F21               170               MOV.L       R2,@(4,R15)
  178 00000134 AFE5               171               BRA         L46
  179 00000136 2250               172               MOV.B       R5,@R2
  180 00000138                    173     _pio_io_in:                      ; function: pio_io_in
  181                             174                                      ; frame size=4
  182 00000138 7FFC               175               ADD         #-4,R15
  183 0000013A 4411               176               CMP/PZ      R4
  184 0000013C 8B18               177               BF          L59
  185 0000013E E304               178               MOV         #4,R3      ; H'00000004
  186 00000140 3433               179               CMP/GE      R3,R4
  187 00000142 8915               180               BT          L59
  188 00000144 2448               181               TST         R4,R4
  189 00000146 8915               182               BT          L62
  190 00000148 6043               183               MOV         R4,R0
  191 0000014A 8801               184               CMP/EQ      #1,R0
  192 0000014C 8919               185               BT          L64
  193 0000014E 6043               186               MOV         R4,R0
  194 00000150 8802               187               CMP/EQ      #2,R0
  195 00000152 8925               188               BT          L66
  196 00000154 6043               189               MOV         R4,R0
  197 00000156 8803               190               CMP/EQ      #3,R0
  198 00000158 8B05               191               BF          L68
  199 0000015A E6B0               192               MOV         #-80,R6    ; H'FFFFFFB0
  200 0000015C 4618               193               SHLL8       R6
  201 0000015E 7602               194               ADD         #2,R6
  202 00000160 4628               195               SHLL16      R6
  203 00000162 8463               196               MOV.B       @(3,R6),R0
  204 00000164 2F00               197               MOV.B       R0,@R15
  205 00000166                    198     L68:
  206 00000166 63F0               199               MOV.B       @R15,R3
  207 00000168 623C               200               EXTU.B      R3,R2
  208 0000016A 6027               201               NOT         R2,R0
  209 0000016C                    202     L69:
  210 0000016C 000B               203               RTS
  211 0000016E 7F04               204               ADD         #4,R15
  212 00000170                    205     L59:
  213 00000170 AFFC               206               BRA         L69
  214 00000172 E0FF               207               MOV         #-1,R0     ; H'FFFFFFFF
  215 00000174                    208     L62:
  216 00000174 E6B0               209               MOV         #-80,R6    ; H'FFFFFFB0
  217 00000176 4618               210               SHLL8       R6
  218 00000178 7602               211               ADD         #2,R6
  219 0000017A 4628               212               SHLL16      R6
  220 0000017C 8461               213               MOV.B       @(1,R6),R0
  221 0000017E AFF2               214               BRA         L68
  222 00000180 2F00               215               MOV.B       R0,@R15
  223 00000182                    216     L64:
  224 00000182 2558               217               TST         R5,R5
  225 00000184 8906               218               BT          L72
  226 00000186 E6B0               219               MOV         #-80,R6    ; H'FFFFFFB0
  227 00000188 4618               220               SHLL8       R6
  228 0000018A 7602               221               ADD         #2,R6
*** SuperH RISC engine ASSEMBLER Ver. 5.1 ***    01/07/08 14:45:03                                                       PAGE     5
PROGRAM NAME =

  229 0000018C 4628               222               SHLL16      R6
  230 0000018E 8462               223               MOV.B       @(2,R6),R0
  231 00000190 AFE9               224               BRA         L68
  232 00000192 2F00               225               MOV.B       R0,@R15
  233 00000194                    226     L72:
  234 00000194 E6B1               227               MOV         #-79,R6    ; H'FFFFFFB1
  235 00000196 4618               228               SHLL8       R6
  236 00000198 4628               229               SHLL16      R6
  237 0000019A 6260               230               MOV.B       @R6,R2
  238 0000019C AFE3               231               BRA         L68
  239 0000019E 2F20               232               MOV.B       R2,@R15
  240 000001A0                    233     L66:
  241 000001A0 E6B0               234               MOV         #-80,R6    ; H'FFFFFFB0
  242 000001A2 4618               235               SHLL8       R6
  243 000001A4 7602               236               ADD         #2,R6
  244 000001A6 4628               237               SHLL16      R6
  245 000001A8 6260               238               MOV.B       @R6,R2
  246 000001AA AFDC               239               BRA         L68
  247 000001AC 2F20               240               MOV.B       R2,@R15
  248 000001AE                    241     _pio_io_bctl:                    ; function: pio_io_bctl
  249                             242                                      ; frame size=8
  250 000001AE 7FF8               243               ADD         #-8,R15
  251 000001B0 4411               244               CMP/PZ      R4
  252 000001B2 8B29               245               BF          L84
  253 000001B4 E304               246               MOV         #4,R3      ; H'00000004
  254 000001B6 3433               247               CMP/GE      R3,R4
  255 000001B8 8926               248               BT          L84
  256 000001BA 4511               249               CMP/PZ      R5
  257 000001BC 8B26               250               BF          L87
  258 000001BE E307               251               MOV         #7,R3      ; H'00000007
  259 000001C0 3537               252               CMP/GT      R3,R5
  260 000001C2 8923               253               BT          L87
  261 000001C4 2448               254               TST         R4,R4
  262 000001C6 8923               255               BT          L90
  263 000001C8 6043               256               MOV         R4,R0
  264 000001CA 8801               257               CMP/EQ      #1,R0
  265 000001CC 8926               258               BT          L92
  266 000001CE 8802               259               CMP/EQ      #2,R0
  267 000001D0 892A               260               BT          L94
  268 000001D2 6043               261               MOV         R4,R0
  269 000001D4 8803               262               CMP/EQ      #3,R0
  270 000001D6 8B30               263               BF          L96
  271 000001D8 D32F               264               MOV.L       L121,R3    ; H'B0020003
  272 000001DA E703               265               MOV         #3,R7      ; H'00000003
  273 000001DC 2F72               266               MOV.L       R7,@R15
  274 000001DE 1F31               267               MOV.L       R3,@(4,R15)
  275 000001E0                    268     L97:
  276 000001E0 2668               269               TST         R6,R6
  277 000001E2 892C               270               BT          L99
  278 000001E4 6063               271               MOV         R6,R0
  279 000001E6 8801               272               CMP/EQ      #1,R0
  280 000001E8 8B31               273               BF          L101
  281 000001EA D42E               274               MOV.L       L121+12,R4 ; __$pdata$122
  282 000001EC E201               275               MOV         #1,R2      ; H'00000001
  283 000001EE 425C               276               SHAD        R5,R2
  284 000001F0 6073               277               MOV         R7,R0
  285 000001F2 6627               278               NOT         R2,R6
*** SuperH RISC engine ASSEMBLER Ver. 5.1 ***    01/07/08 14:45:03                                                       PAGE     6
PROGRAM NAME =

  286 000001F4 024C               279               MOV.B       @(R0,R4),R2
  287 000001F6 2269               280               AND         R6,R2
  288 000001F8 0424               281               MOV.B       R2,@(R0,R4)
  289 000001FA                    282     L102:
  290 000001FA 6073               283               MOV         R7,R0
  291 000001FC 064C               284               MOV.B       @(R0,R4),R6
  292 000001FE 53F1               285               MOV.L       @(4,R15),R3
  293 00000200 606C               286               EXTU.B      R6,R0
  294 00000202 2300               287               MOV.B       R0,@R3
  295 00000204                    288     L103:
  296 00000204 000B               289               RTS
  297 00000206 7F08               290               ADD         #8,R15
  298 00000208                    291     L84:
  299 00000208 AFFC               292               BRA         L103
  300 0000020A E0FF               293               MOV         #-1,R0     ; H'FFFFFFFF
  301 0000020C                    294     L87:
  302 0000020C AFFA               295               BRA         L103
  303 0000020E E0FF               296               MOV         #-1,R0     ; H'FFFFFFFF
  304 00000210                    297     L90:
  305 00000210 D322               298               MOV.L       L121+4,R3  ; H'B0020001
  306 00000212 E700               299               MOV         #0,R7      ; H'00000000
  307 00000214 2F72               300               MOV.L       R7,@R15
  308 00000216 1F31               301               MOV.L       R3,@(4,R15)
  309 00000218 AFE2               302               BRA         L97
  310 0000021A 0009               303               NOP
  311 0000021C                    304     L92:
  312 0000021C D320               305               MOV.L       L121+8,R3  ; H'B0020002
  313 0000021E E701               306               MOV         #1,R7      ; H'00000001
  314 00000220 2F72               307               MOV.L       R7,@R15
  315 00000222 1F31               308               MOV.L       R3,@(4,R15)
  316 00000224 AFDC               309               BRA         L97
  317 00000226 0009               310               NOP
  318 00000228                    311     L94:
  319 00000228 E3B0               312               MOV         #-80,R3    ; H'FFFFFFB0
  320 0000022A 4318               313               SHLL8       R3
  321 0000022C 7302               314               ADD         #2,R3
  322 0000022E E702               315               MOV         #2,R7      ; H'00000002
  323 00000230 4328               316               SHLL16      R3
  324 00000232 2F72               317               MOV.L       R7,@R15
  325 00000234 1F31               318               MOV.L       R3,@(4,R15)
  326 00000236 AFD3               319               BRA         L97
  327 00000238 0009               320               NOP
  328 0000023A                    321     L96:
  329 0000023A AFE3               322               BRA         L103
  330 0000023C E0FF               323               MOV         #-1,R0     ; H'FFFFFFFF
  331 0000023E                    324     L99:
  332 0000023E D419               325               MOV.L       L121+12,R4 ; __$pdata$122
  333 00000240 6073               326               MOV         R7,R0
  334 00000242 E201               327               MOV         #1,R2      ; H'00000001
  335 00000244 064C               328               MOV.B       @(R0,R4),R6
  336 00000246 425C               329               SHAD        R5,R2
  337 00000248 262B               330               OR          R2,R6
  338 0000024A AFD6               331               BRA         L102
  339 0000024C 0464               332               MOV.B       R6,@(R0,R4)
  340 0000024E                    333     L101:
  341 0000024E AFD9               334               BRA         L103
  342 00000250 E0FF               335               MOV         #-1,R0     ; H'FFFFFFFF
*** SuperH RISC engine ASSEMBLER Ver. 5.1 ***    01/07/08 14:45:03                                                       PAGE     7
PROGRAM NAME =

  343 00000252                    336     _pio_icu_info:                   ; function: pio_icu_info
  344                             337                                      ; frame size=0
  345 00000252 4411               338               CMP/PZ      R4
  346 00000254 8B06               339               BF          L107
  347 00000256 E304               340               MOV         #4,R3      ; H'00000004
  348 00000258 3433               341               CMP/GE      R3,R4
  349 0000025A 8903               342               BT          L107
  350 0000025C D012               343               MOV.L       L121+16,R0 ; __$phyinf
  351 0000025E 4408               344               SHLL2       R4
  352 00000260 000B               345               RTS
  353 00000262 304C               346               ADD         R4,R0
  354 00000264                    347     L107:
  355 00000264 000B               348               RTS
  356 00000266 E000               349               MOV         #0,R0      ; H'00000000
  357 00000268                    350     _pio_175_out:                    ; function: pio_175_out
  358                             351                                      ; frame size=0
  359 00000268 E1B0               352               MOV         #-80,R1    ; H'FFFFFFB0
  360 0000026A 2448               353               TST         R4,R4
  361 0000026C 4118               354               SHLL8       R1
  362 0000026E 6763               355               MOV         R6,R7
  363 00000270 7102               356               ADD         #2,R1
  364 00000272 8D0B               357               BT/S        L116
  365 00000274 4128               358               SHLL16      R1
  366 00000276 6043               359               MOV         R4,R0
  367 00000278 8801               360               CMP/EQ      #1,R0
  368 0000027A 8B0B               361               BF          L118
  369 0000027C 6270               362               MOV.B       @R7,R2
  370 0000027E 6657               363               NOT         R5,R6
  371 00000280 2269               364               AND         R6,R2
  372 00000282 2720               365               MOV.B       R2,@R7
  373 00000284                    366     L119:
  374 00000284 6270               367               MOV.B       @R7,R2
  375 00000286 E000               368               MOV         #0,R0      ; H'00000000
  376 00000288 000B               369               RTS
  377 0000028A 2120               370               MOV.B       R2,@R1
  378 0000028C                    371     L116:
  379 0000028C 6670               372               MOV.B       @R7,R6
  380 0000028E 265B               373               OR          R5,R6
  381 00000290 AFF8               374               BRA         L119
  382 00000292 2760               375               MOV.B       R6,@R7
  383 00000294                    376     L118:
  384 00000294 000B               377               RTS
  385 00000296 E0FF               378               MOV         #-1,R0     ; H'FFFFFFFF
  386 00000298                    379     L121:
  387 00000298 B0020003           380               .DATA.L     H'B0020003
  388 0000029C B0020001           381               .DATA.L     H'B0020001
  389 000002A0 B0020002           382               .DATA.L     H'B0020002
  390 000002A4 00000000           383               .DATA.L     __$pdata$122
  391 000002A8 00000000           384               .DATA.L     __$phyinf
  392 00000000                    385               .SECTION    B,DATA,ALIGN=4
  393 00000000                    386     __$pdata$122:                    ; static: __$pdata$122
  394 00000000 00000004           387               .RES.B      4
  395 00000004                    388     __$phyinf:                       ; static: __$phyinf
  396 00000004 00000010           389               .RES.W      8
  397                             390               .END
  *****TOTAL ERRORS       0
  *****TOTAL WARNINGS     0
*** SuperH RISC engine ASSEMBLER Ver. 5.1 ***    01/07/08 14:45:03                                                       PAGE     8

*** CROSS REFERENCE LIST

NAME                             SECTION  ATTR VALUE             SEQUENCE

B                                B        SCT  00000000    392*
L101                             P             0000024E    280   340*
L102                             P             000001FA    289*  338 
L103                             P             00000204    295*  299   302   329   341 
L107                             P             00000264    346   349   354*
L116                             P             0000028C    364   378*
L118                             P             00000294    368   383*
L119                             P             00000284    373*  381 
L121                             P             00000298    143   163   168   271   281   305   312   332   350   386*
L20                              P             000000A8     75    95*
L22                              P             000000B6     79   103*
L24                              P             000000C4     82   111*
L26                              P             000000D4     85   120*
L27                              P             000000A4     92*  101   109   118   121 
L37                              P             00000116    129   133   159*
L40                              P             0000011A    135   162*
L42                              P             00000122    138   167*
L44                              P             0000012A    140   172*
L46                              P             00000102    142   146*  165   170   178 
L48                              P             00000110    152   154*
L49                              P             00000112    156*  160 
L59                              P             00000170    184   187   212*
L62                              P             00000174    189   215*
L64                              P             00000182    192   223*
L66                              P             000001A0    195   240*
L68                              P             00000166    198   205*  221   231   238   246 
L69                              P             0000016C    209*  213 
L72                              P             00000194    225   233*
L84                              P             00000208    252   255   298*
L87                              P             0000020C    257   260   301*
L90                              P             00000210    262   304*
L92                              P             0000021C    265   311*
L94                              P             00000228    267   318*
L96                              P             0000023A    270   328*
L97                              P             000001E0    275*  309   316   326 
L99                              P             0000023E    277   331*
Lrsxxx                           P             00000034     33    44*
P                                P        SCT  00000000     10*
__$pdata$122                     B             00000000    390   393*
__$phyinf                        B             00000004    391   395*
_pio_175_out                     P        EXPT 00000268      9    54   357*
_pio_icu_info                    P        EXPT 00000252      8    53   343*
_pio_io                          P        EXPT 00000000      2    11*
_pio_io_bctl                     P        EXPT 000001AE      7    52   248*
_pio_io_err                      P        EXPT 0000007C      3    45    68*
_pio_io_in                       P        EXPT 00000138      6    51   180*
_pio_io_init                     P        EXPT 00000080      4    49    72*
_pio_io_out                      P        EXPT 000000D8      5    50   123*
jt_pio                           P             00000038     18    48*
pio_exit                         P             00000020     23    32*
*** SuperH RISC engine ASSEMBLER Ver. 5.1 ***    01/07/08 14:45:03                                                       PAGE     9

*** SECTION DATA LIST

SECTION                          ATTRIBUTE    SIZE             START

P                                REL-CODE    0000002AC        
B                                REL-DATA    000000014        
