*** SuperH RISC engine ASSEMBLER Ver. 5.1 ***    01/07/08 14:45:04                                                       PAGE     1
PROGRAM NAME =

    1                               1               .FILE       "P:\PRESTO2\shlib_v7\WCU\BIOS\t0029\scuio.c"
    2                               2               .EXPORT     _scu_io
    3                               3               .EXPORT     _scu_io_err
    4                               4               .EXPORT     _scu_io_init
    5                               5               .EXPORT     _scu_io_scm
    6                               6               .EXPORT     _scu_io_sst
    7                               7               .EXPORT     _scu_io_putc
    8                               8               .EXPORT     _scu_io_baud
    9 00000000                      9               .SECTION    P,CODE,ALIGN=4
   10 00000000                     10     _scu_io:                         ; function: scu_io
   11                              11                                      ; frame size=0
   12 00000000 4F22                12               STS.L       PR,@-R15
   13                              13     ;         MOV.L       #H'000000F0,R1
   14                              14     ;         LDC         R1,SR
   15 00000002 C90F                15               AND         #H'0000000F,R0
   16 00000004 4008                16               SHLL2       R0
   17 00000006 D205                17               MOV.L       #jt_scu,R2  ;arrangement Top Address
   18 00000008 302C                18               ADD         R2,R0       ;Add offset_Value
   19 0000000A 6302                19               MOV.L       @R0,R3
   20 0000000C 6033                20               MOV.L       R3,R0
   21 0000000E 8800                21               CMP/EQ      #0,R0
   22 00000010 8906                22               BT          scu_exit
   23 00000012 400B                23               JSR         @R0
   24 00000014 0009                24               NOP
   25 00000016 4F26                25               LDS.L       @R15+,PR
   26 00000018 000B                26               RTS
   27 0000001A 0009                27               NOP
   28                                     ***** BEGIN-POOL *****
   29 0000001C 00000000                   DATA FOR SOURCE-LINE 17
   30                                     ***** END-POOL *****
   31 00000020                     28     scu_exit:
   32 00000020 D004                29               MOV.L       Lrsxxx,R0   ;scu_io_err
   33 00000022 400B                30               JSR         @R0
   34 00000024 0009                31               NOP
   35 00000026 D002                32               MOV.L       #-1,R0      ;システムコールの返り値は -1
   36 00000028 4F26                33               LDS.L       @R15+,PR
   37 0000002A 000B                34               RTS                     ;異常終了
   38 0000002C 0009                35               NOP
   39                                     ***** BEGIN-POOL *****
   40 0000002E 0000                       ALIGNMENT CODE
   41 00000030 FFFFFFFF                   DATA FOR SOURCE-LINE 32
   42                                     ***** END-POOL *****
   43 00000034                     36     Lrsxxx:
   44 00000034 00000000            37               .DATA.L     _scu_io_err
   45                              38     
   46 00000038                     39               .ALIGN 4
   47 00000038                     40     jt_scu:
   48 00000038 00000000            41               .DATA.L     _scu_io_init  ; r0 = 0
   49 0000003C 00000000            42               .DATA.L     _scu_io_scm   ;    = 1
   50 00000040 00000000            43               .DATA.L     _scu_io_sst   ;    = 2
   51 00000044 00000000            44               .DATA.L     _scu_io_putc  ;    = 3
   52 00000048 00000000            45               .DATA.L     _scu_io_baud  ;    = 4
   53 0000004C 00000000            46               .DATA.L     0             ; none
   54 00000050 00000000            47               .DATA.L     0             ; none
   55 00000054 00000000            48               .DATA.L     0             ; none
   56 00000058 00000000            49               .DATA.L     0             ; none
   57 0000005C 00000000            50               .DATA.L     0             ; none
*** SuperH RISC engine ASSEMBLER Ver. 5.1 ***    01/07/08 14:45:04                                                       PAGE     2
PROGRAM NAME =

   58 00000060 00000000            51               .DATA.L     0             ; none
   59 00000064 00000000            52               .DATA.L     0             ; none
   60 00000068 00000000            53               .DATA.L     0             ; none
   61 0000006C 00000000            54               .DATA.L     0             ; none
   62 00000070 00000000            55               .DATA.L     0             ; none
   63 00000074 00000000            56               .DATA.L     0             ; none
   64 00000078                     57               .ALIGN      4
   65 00000078 000B                58               RTS
   66 0000007A 0009                59               NOP
   67 0000007C                     60     _scu_io_err:                     ; function: scu_io_err
   68                              61                                      ; frame size=0
   69 0000007C 000B                62               RTS
   70 0000007E E000                63               MOV         #0,R0      ; H'00000000
   71 00000080                     64     _scu_io_init:                    ; function: scu_io_init
   72                              65                                      ; frame size=8
   73 00000080 2FD6                66               MOV.L       R13,@-R15
   74 00000082 2FE6                67               MOV.L       R14,@-R15
   75 00000084 6E73                68               MOV         R7,R14
   76 00000086 6D63                69               MOV         R6,R13
   77 00000088 0002                70               STC         SR,R0
   78 0000008A E3FF                71               MOV         #-1,R3     ; H'FFFFFFFF
   79 0000008C 4318                72               SHLL8       R3
   80 0000008E 730F                73               ADD         #15,R3
   81 00000090 2039                74               AND         R3,R0
   82 00000092 CBF0                75               OR          #240,R0
   83 00000094 400E                76               LDC         R0,SR
   84 00000096 2448                77               TST         R4,R4
   85 00000098 8B60                78               BF          L14
   86 0000009A E7FF                79               MOV         #-1,R7     ; H'FFFFFFFF
   87 0000009C D28E                80               MOV.L       L98+2,R2   ; __$cke
   88 0000009E 4718                81               SHLL8       R7
   89 000000A0 7780                82               ADD         #-128,R7
   90 000000A2 E000                83               MOV         #0,R0      ; H'00000000
   91 000000A4 8074                84               MOV.B       R0,@(4,R7)
   92 000000A6 6043                85               MOV         R4,R0
   93 000000A8 062C                86               MOV.B       @(R0,R2),R6
   94 000000AA 8474                87               MOV.B       @(4,R7),R0
   95 000000AC 6203                88               MOV         R0,R2
   96 000000AE E003                89               MOV         #3,R0      ; H'00000003
   97 000000B0 2609                90               AND         R0,R6
   98 000000B2 6023                91               MOV         R2,R0
   99 000000B4 C9FC                92               AND         #252,R0
  100 000000B6 206B                93               OR          R6,R0
  101 000000B8 D688                94               MOV.L       L98+6,R6   ; __$baudrate
  102 000000BA 8074                95               MOV.B       R0,@(4,R7)
  103 000000BC 6043                96               MOV         R4,R0
  104 000000BE 006C                97               MOV.B       @(R0,R6),R0
  105 000000C0 8072                98               MOV.B       R0,@(2,R7)
  106 000000C2 6053                99               MOV         R5,R0
  107 000000C4 CA01               100               XOR         #1,R0
  108 000000C6 C801               101               TST         #1,R0
  109 000000C8 8F3B               102               BF/S        L16
  110 000000CA 6270               103               MOV.B       @R7,R2
  111 000000CC 6023               104               MOV         R2,R0
  112 000000CE C9BF               105               AND         #191,R0
  113 000000D0 6203               106               MOV         R0,R2
  114 000000D2                    107     L17:
*** SuperH RISC engine ASSEMBLER Ver. 5.1 ***    01/07/08 14:45:04                                                       PAGE     3
PROGRAM NAME =

  115 000000D2 2EE8               108               TST         R14,R14
  116 000000D4 8D3B               109               BT/S        L19
  117 000000D6 2720               110               MOV.B       R2,@R7
  118 000000D8 6070               111               MOV.B       @R7,R0
  119 000000DA CB20               112               OR          #32,R0
  120 000000DC 2700               113               MOV.B       R0,@R7
  121 000000DE 60E3               114               MOV         R14,R0
  122 000000E0 C901               115               AND         #1,R0
  123 000000E2 C801               116               TST         #1,R0
  124 000000E4 8F30               117               BF/S        L21
  125 000000E6 6270               118               MOV.B       @R7,R2
  126 000000E8 6023               119               MOV         R2,R0
  127 000000EA C9EF               120               AND         #239,R0
  128 000000EC 6203               121               MOV         R0,R2
  129 000000EE                    122     L22:
  130 000000EE 2720               123               MOV.B       R2,@R7
  131 000000F0                    124     L23:
  132 000000F0 60D3               125               MOV         R13,R0
  133 000000F2 C801               126               TST         #1,R0
  134 000000F4 8F2F               127               BF/S        L25
  135 000000F6 6270               128               MOV.B       @R7,R2
  136 000000F8 6023               129               MOV         R2,R0
  137 000000FA C9F7               130               AND         #247,R0
  138 000000FC 6203               131               MOV         R0,R2
  139 000000FE                    132     L26:
  140 000000FE 2720               133               MOV.B       R2,@R7
  141 00000100 E5FF               134               MOV         #-1,R5     ; H'FFFFFFFF
  142 00000102 8478               135               MOV.B       @(8,R7),R0
  143 00000104 4518               136               SHLL8       R5
  144 00000106 75E0               137               ADD         #-32,R5
  145 00000108 93BA               138               MOV.W       L97,R3     ; H'FF0F
  146 0000010A C9BF               139               AND         #191,R0
  147 0000010C 8078               140               MOV.B       R0,@(8,R7)
  148 0000010E 8478               141               MOV.B       @(8,R7),R0
  149 00000110 C9F7               142               AND         #247,R0
  150 00000112 8078               143               MOV.B       R0,@(8,R7)
  151 00000114 8474               144               MOV.B       @(4,R7),R0
  152 00000116 CB40               145               OR          #64,R0
  153 00000118 8074               146               MOV.B       R0,@(4,R7)
  154 0000011A 8474               147               MOV.B       @(4,R7),R0
  155 0000011C CB20               148               OR          #32,R0
  156 0000011E 8074               149               MOV.B       R0,@(4,R7)
  157 00000120 8474               150               MOV.B       @(4,R7),R0
  158 00000122 CB10               151               OR          #16,R0
  159 00000124 8074               152               MOV.B       R0,@(4,R7)
  160 00000126 8552               153               MOV.W       @(4,R5),R0
  161 00000128 2039               154               AND         R3,R0
  162 0000012A CB50               155               OR          #80,R0
  163 0000012C 8152               156               MOV.W       R0,@(4,R5)
  164 0000012E                    157     L27:
  165 0000012E 0202               158               STC         SR,R2
  166 00000130 E3FF               159               MOV         #-1,R3     ; H'FFFFFFFF
  167 00000132 4318               160               SHLL8       R3
  168 00000134 730F               161               ADD         #15,R3
  169 00000136 2239               162               AND         R3,R2
  170 00000138 420E               163               LDC         R2,SR
  171 0000013A 6073               164               MOV         R7,R0
*** SuperH RISC engine ASSEMBLER Ver. 5.1 ***    01/07/08 14:45:04                                                       PAGE     4
PROGRAM NAME =

  172 0000013C 6EF6               165               MOV.L       @R15+,R14
  173 0000013E 000B               166               RTS
  174 00000140 6DF6               167               MOV.L       @R15+,R13
  175 00000142                    168     L16:
  176 00000142 E040               169               MOV         #64,R0     ; H'00000040
  177 00000144 AFC5               170               BRA         L17
  178 00000146 220B               171               OR          R0,R2
  179 00000148                    172     L21:
  180 00000148 E010               173               MOV         #16,R0     ; H'00000010
  181 0000014A AFD0               174               BRA         L22
  182 0000014C 220B               175               OR          R0,R2
  183 0000014E                    176     L19:
  184 0000014E 6070               177               MOV.B       @R7,R0
  185 00000150 C9DF               178               AND         #223,R0
  186 00000152 AFCD               179               BRA         L23
  187 00000154 2700               180               MOV.B       R0,@R7
  188 00000156                    181     L25:
  189 00000156 E008               182               MOV         #8,R0      ; H'00000008
  190 00000158 AFD1               183               BRA         L26
  191 0000015A 220B               184               OR          R0,R2
  192 0000015C                    185     L14:
  193 0000015C D760               186               MOV.L       L98+10,R7  ; H'A4000150
  194 0000015E E000               187               MOV         #0,R0      ; H'00000000
  195 00000160 D25D               188               MOV.L       L98+2,R2   ; __$cke
  196 00000162 8074               189               MOV.B       R0,@(4,R7)
  197 00000164 6043               190               MOV         R4,R0
  198 00000166 062C               191               MOV.B       @(R0,R2),R6
  199 00000168 8474               192               MOV.B       @(4,R7),R0
  200 0000016A 6203               193               MOV         R0,R2
  201 0000016C E003               194               MOV         #3,R0      ; H'00000003
  202 0000016E 2609               195               AND         R0,R6
  203 00000170 6023               196               MOV         R2,R0
  204 00000172 C9FC               197               AND         #252,R0
  205 00000174 206B               198               OR          R6,R0
  206 00000176 D659               199               MOV.L       L98+6,R6   ; __$baudrate
  207 00000178 8074               200               MOV.B       R0,@(4,R7)
  208 0000017A 6043               201               MOV         R4,R0
  209 0000017C 006C               202               MOV.B       @(R0,R6),R0
  210 0000017E 8072               203               MOV.B       R0,@(2,R7)
  211 00000180 6053               204               MOV         R5,R0
  212 00000182 CA01               205               XOR         #1,R0
  213 00000184 C801               206               TST         #1,R0
  214 00000186 8F30               207               BF/S        L31
  215 00000188 6270               208               MOV.B       @R7,R2
  216 0000018A 6023               209               MOV         R2,R0
  217 0000018C C9BF               210               AND         #191,R0
  218 0000018E 6203               211               MOV         R0,R2
  219 00000190                    212     L32:
  220 00000190 2EE8               213               TST         R14,R14
  221 00000192 8D30               214               BT/S        L34
  222 00000194 2720               215               MOV.B       R2,@R7
  223 00000196 6070               216               MOV.B       @R7,R0
  224 00000198 CB20               217               OR          #32,R0
  225 0000019A 2700               218               MOV.B       R0,@R7
  226 0000019C 60E3               219               MOV         R14,R0
  227 0000019E C901               220               AND         #1,R0
  228 000001A0 C801               221               TST         #1,R0
*** SuperH RISC engine ASSEMBLER Ver. 5.1 ***    01/07/08 14:45:04                                                       PAGE     5
PROGRAM NAME =

  229 000001A2 8F25               222               BF/S        L36
  230 000001A4 6270               223               MOV.B       @R7,R2
  231 000001A6 6023               224               MOV         R2,R0
  232 000001A8 C9EF               225               AND         #239,R0
  233 000001AA 6203               226               MOV         R0,R2
  234 000001AC                    227     L37:
  235 000001AC 2720               228               MOV.B       R2,@R7
  236 000001AE                    229     L38:
  237 000001AE 60D3               230               MOV         R13,R0
  238 000001B0 C801               231               TST         #1,R0
  239 000001B2 8F24               232               BF/S        L40
  240 000001B4 6270               233               MOV.B       @R7,R2
  241 000001B6 6023               234               MOV         R2,R0
  242 000001B8 C9F7               235               AND         #247,R0
  243 000001BA 6203               236               MOV         R0,R2
  244 000001BC                    237     L41:
  245 000001BC 2720               238               MOV.B       R2,@R7
  246 000001BE E3FD               239               MOV         #-3,R3     ; H'FFFFFFFD
  247 000001C0 8574               240               MOV.W       @(8,R7),R0
  248 000001C2 E5A4               241               MOV         #-92,R5    ; H'FFFFFFA4
  249 000001C4 4518               242               SHLL8       R5
  250 000001C6 915B               243               MOV.W       L97,R1     ; H'FF0F
  251 000001C8 2039               244               AND         R3,R0
  252 000001CA 8174               245               MOV.W       R0,@(8,R7)
  253 000001CC 4528               246               SHLL16      R5
  254 000001CE 8474               247               MOV.B       @(4,R7),R0
  255 000001D0 CB40               248               OR          #64,R0
  256 000001D2 8074               249               MOV.B       R0,@(4,R7)
  257 000001D4 8474               250               MOV.B       @(4,R7),R0
  258 000001D6 CB20               251               OR          #32,R0
  259 000001D8 8074               252               MOV.B       R0,@(4,R7)
  260 000001DA 8474               253               MOV.B       @(4,R7),R0
  261 000001DC CB10               254               OR          #16,R0
  262 000001DE 8074               255               MOV.B       R0,@(4,R7)
  263 000001E0 855D               256               MOV.W       @(26,R5),R0
  264 000001E2 2019               257               AND         R1,R0
  265 000001E4 CB50               258               OR          #80,R0
  266 000001E6 AFA2               259               BRA         L27
  267 000001E8 815D               260               MOV.W       R0,@(26,R5)
  268 000001EA                    261     L31:
  269 000001EA E040               262               MOV         #64,R0     ; H'00000040
  270 000001EC AFD0               263               BRA         L32
  271 000001EE 220B               264               OR          R0,R2
  272 000001F0                    265     L36:
  273 000001F0 E010               266               MOV         #16,R0     ; H'00000010
  274 000001F2 AFDB               267               BRA         L37
  275 000001F4 220B               268               OR          R0,R2
  276 000001F6                    269     L34:
  277 000001F6 6070               270               MOV.B       @R7,R0
  278 000001F8 C9DF               271               AND         #223,R0
  279 000001FA AFD8               272               BRA         L38
  280 000001FC 2700               273               MOV.B       R0,@R7
  281 000001FE                    274     L40:
  282 000001FE E008               275               MOV         #8,R0      ; H'00000008
  283 00000200 AFDC               276               BRA         L41
  284 00000202 220B               277               OR          R0,R2
  285 00000204                    278     _scu_io_scm:                     ; function: scu_io_scm
*** SuperH RISC engine ASSEMBLER Ver. 5.1 ***    01/07/08 14:45:04                                                       PAGE     6
PROGRAM NAME =

  286                             279                                      ; frame size=0
  287 00000204 2448               280               TST         R4,R4
  288 00000206 8B1B               281               BF          L44
  289 00000208 6053               282               MOV         R5,R0
  290 0000020A C801               283               TST         #1,R0
  291 0000020C 890D               284               BT          L46
  292 0000020E E6FF               285               MOV         #-1,R6     ; H'FFFFFFFF
  293 00000210 4618               286               SHLL8       R6
  294 00000212 7680               287               ADD         #-128,R6
  295 00000214 8464               288               MOV.B       @(4,R6),R0
  296 00000216 CB20               289               OR          #32,R0
  297 00000218 8064               290               MOV.B       R0,@(4,R6)
  298 0000021A                    291     L47:
  299 0000021A 6053               292               MOV         R5,R0
  300 0000021C C802               293               TST         #2,R0
  301 0000021E 890B               294               BT          L49
  302 00000220 8464               295               MOV.B       @(4,R6),R0
  303 00000222 CB10               296               OR          #16,R0
  304 00000224 8064               297               MOV.B       R0,@(4,R6)
  305 00000226                    298     L50:
  306 00000226 000B               299               RTS
  307 00000228 E000               300               MOV         #0,R0      ; H'00000000
  308 0000022A                    301     L46:
  309 0000022A E6FF               302               MOV         #-1,R6     ; H'FFFFFFFF
  310 0000022C 4618               303               SHLL8       R6
  311 0000022E 7680               304               ADD         #-128,R6
  312 00000230 8464               305               MOV.B       @(4,R6),R0
  313 00000232 C9DF               306               AND         #223,R0
  314 00000234 AFF1               307               BRA         L47
  315 00000236 8064               308               MOV.B       R0,@(4,R6)
  316 00000238                    309     L49:
  317 00000238 8464               310               MOV.B       @(4,R6),R0
  318 0000023A C9EF               311               AND         #239,R0
  319 0000023C AFF3               312               BRA         L50
  320 0000023E 8064               313               MOV.B       R0,@(4,R6)
  321 00000240                    314     L44:
  322 00000240 6053               315               MOV         R5,R0
  323 00000242 C801               316               TST         #1,R0
  324 00000244 890A               317               BT          L53
  325 00000246 D626               318               MOV.L       L98+10,R6  ; H'A4000150
  326 00000248 8464               319               MOV.B       @(4,R6),R0
  327 0000024A CB20               320               OR          #32,R0
  328 0000024C 8064               321               MOV.B       R0,@(4,R6)
  329 0000024E                    322     L54:
  330 0000024E 6053               323               MOV         R5,R0
  331 00000250 C802               324               TST         #2,R0
  332 00000252 8908               325               BT          L56
  333 00000254 8464               326               MOV.B       @(4,R6),R0
  334 00000256 CB10               327               OR          #16,R0
  335 00000258 AFE5               328               BRA         L50
  336 0000025A 8064               329               MOV.B       R0,@(4,R6)
  337 0000025C                    330     L53:
  338 0000025C D620               331               MOV.L       L98+10,R6  ; H'A4000150
  339 0000025E 8464               332               MOV.B       @(4,R6),R0
  340 00000260 C9DF               333               AND         #223,R0
  341 00000262 AFF4               334               BRA         L54
  342 00000264 8064               335               MOV.B       R0,@(4,R6)
*** SuperH RISC engine ASSEMBLER Ver. 5.1 ***    01/07/08 14:45:04                                                       PAGE     7
PROGRAM NAME =

  343 00000266                    336     L56:
  344 00000266 8464               337               MOV.B       @(4,R6),R0
  345 00000268 C9EF               338               AND         #239,R0
  346 0000026A AFDC               339               BRA         L50
  347 0000026C 8064               340               MOV.B       R0,@(4,R6)
  348 0000026E                    341     _scu_io_sst:                     ; function: scu_io_sst
  349                             342                                      ; frame size=0
  350 0000026E 2448               343               TST         R4,R4
  351 00000270 8B07               344               BF          L59
  352 00000272 E6FF               345               MOV         #-1,R6     ; H'FFFFFFFF
  353 00000274 4618               346               SHLL8       R6
  354 00000276 7680               347               ADD         #-128,R6
  355 00000278 8468               348               MOV.B       @(8,R6),R0
  356 0000027A 620C               349               EXTU.B      R0,R2
  357 0000027C                    350     L60:
  358 0000027C 000B               351               RTS
  359 0000027E 6023               352               MOV         R2,R0
  360 00000280                    353     L97:
  361 00000280 FF0F               354               .DATA.W     H'FF0F
  362 00000282                    355     L59:
  363 00000282 D617               356               MOV.L       L98+10,R6  ; H'A4000150
  364 00000284 8564               357               MOV.W       @(8,R6),R0
  365 00000286 AFF9               358               BRA         L60
  366 00000288 620D               359               EXTU.W      R0,R2
  367 0000028A                    360     _scu_io_putc:                    ; function: scu_io_putc
  368                             361                                      ; frame size=0
  369 0000028A 2448               362               TST         R4,R4
  370 0000028C 8B15               363               BF          L64
  371 0000028E E6FF               364               MOV         #-1,R6     ; H'FFFFFFFF
  372 00000290 4618               365               SHLL8       R6
  373 00000292 7680               366               ADD         #-128,R6
  374 00000294 8464               367               MOV.B       @(4,R6),R0
  375 00000296 CB70               368               OR          #112,R0
  376 00000298 8064               369               MOV.B       R0,@(4,R6)
  377 0000029A 8464               370               MOV.B       @(4,R6),R0
  378 0000029C C97F               371               AND         #127,R0
  379 0000029E 8064               372               MOV.B       R0,@(4,R6)
  380 000002A0 8468               373               MOV.B       @(8,R6),R0
  381 000002A2 C880               374               TST         #128,R0
  382 000002A4 8904               375               BT          L66
  383 000002A6 6053               376               MOV         R5,R0
  384 000002A8 8066               377               MOV.B       R0,@(6,R6)
  385 000002AA 8468               378               MOV.B       @(8,R6),R0
  386 000002AC C97F               379               AND         #127,R0
  387 000002AE 8068               380               MOV.B       R0,@(8,R6)
  388 000002B0                    381     L66:
  389 000002B0 8464               382               MOV.B       @(4,R6),R0
  390 000002B2 CB80               383               OR          #128,R0
  391 000002B4 8064               384               MOV.B       R0,@(4,R6)
  392 000002B6                    385     L67:
  393 000002B6 000B               386               RTS
  394 000002B8 E000               387               MOV         #0,R0      ; H'00000000
  395 000002BA                    388     L64:
  396 000002BA D609               389               MOV.L       L98+10,R6  ; H'A4000150
  397 000002BC E3DF               390               MOV         #-33,R3    ; H'FFFFFFDF
  398 000002BE 8464               391               MOV.B       @(4,R6),R0
  399 000002C0 CB70               392               OR          #112,R0
*** SuperH RISC engine ASSEMBLER Ver. 5.1 ***    01/07/08 14:45:04                                                       PAGE     8
PROGRAM NAME =

  400 000002C2 8064               393               MOV.B       R0,@(4,R6)
  401 000002C4 6053               394               MOV         R5,R0
  402 000002C6 8066               395               MOV.B       R0,@(6,R6)
  403 000002C8 8564               396               MOV.W       @(8,R6),R0
  404 000002CA 2039               397               AND         R3,R0
  405 000002CC 8164               398               MOV.W       R0,@(8,R6)
  406 000002CE 8464               399               MOV.B       @(4,R6),R0
  407 000002D0 CB80               400               OR          #128,R0
  408 000002D2 AFF0               401               BRA         L67
  409 000002D4 8064               402               MOV.B       R0,@(4,R6)
  410 000002D6                    403     L98:
  411 000002D6 00000002           404               .RES.W      1
  412 000002D8 00000000           405               .DATA.L     __$cke
  413 000002DC 00000000           406               .DATA.L     __$baudrate
  414 000002E0 A4000150           407               .DATA.L     H'A4000150
  415 000002E4                    408     _scu_io_baud:                    ; function: scu_io_baud
  416                             409                                      ; frame size=0
  417 000002E4 2558               410               TST         R5,R5
  418 000002E6 891D               411               BT          L81
  419 000002E8 6053               412               MOV         R5,R0
  420 000002EA 8801               413               CMP/EQ      #1,R0
  421 000002EC 8922               414               BT          L83
  422 000002EE 6053               415               MOV         R5,R0
  423 000002F0 8802               416               CMP/EQ      #2,R0
  424 000002F2 8927               417               BT          L85
  425 000002F4 6053               418               MOV         R5,R0
  426 000002F6 8803               419               CMP/EQ      #3,R0
  427 000002F8 892C               420               BT          L87
  428 000002FA 6053               421               MOV         R5,R0
  429 000002FC 8804               422               CMP/EQ      #4,R0
  430 000002FE 8931               423               BT          L89
  431 00000300 6053               424               MOV         R5,R0
  432 00000302 8805               425               CMP/EQ      #5,R0
  433 00000304 8936               426               BT          L91
  434 00000306 6053               427               MOV         R5,R0
  435 00000308 8806               428               CMP/EQ      #6,R0
  436 0000030A 893B               429               BT          L93
  437 0000030C 6053               430               MOV         R5,R0
  438 0000030E 8807               431               CMP/EQ      #7,R0
  439 00000310 8B06               432               BF          L95
  440 00000312 D220               433               MOV.L       L99,R2     ; __$cke
  441 00000314 E300               434               MOV         #0,R3      ; H'00000000
  442 00000316 6043               435               MOV         R4,R0
  443 00000318 E104               436               MOV         #4,R1      ; H'00000004
  444 0000031A 0234               437               MOV.B       R3,@(R0,R2)
  445 0000031C D21E               438               MOV.L       L99+4,R2   ; __$baudrate
  446 0000031E 0214               439               MOV.B       R1,@(R0,R2)
  447 00000320                    440     L95:
  448 00000320 000B               441               RTS
  449 00000322 E000               442               MOV         #0,R0      ; H'00000000
  450 00000324                    443     L81:
  451 00000324 D21B               444               MOV.L       L99,R2     ; __$cke
  452 00000326 E301               445               MOV         #1,R3      ; H'00000001
  453 00000328 6043               446               MOV         R4,R0
  454 0000032A E17F               447               MOV         #127,R1    ; H'0000007F
  455 0000032C 0234               448               MOV.B       R3,@(R0,R2)
  456 0000032E D21A               449               MOV.L       L99+4,R2   ; __$baudrate
*** SuperH RISC engine ASSEMBLER Ver. 5.1 ***    01/07/08 14:45:04                                                       PAGE     9
PROGRAM NAME =

  457 00000330 AFF6               450               BRA         L95
  458 00000332 0214               451               MOV.B       R1,@(R0,R2)
  459 00000334                    452     L83:
  460 00000334 D217               453               MOV.L       L99,R2     ; __$cke
  461 00000336 E300               454               MOV         #0,R3      ; H'00000000
  462 00000338 6043               455               MOV         R4,R0
  463 0000033A E1FF               456               MOV         #-1,R1     ; H'FFFFFFFF
  464 0000033C 0234               457               MOV.B       R3,@(R0,R2)
  465 0000033E D216               458               MOV.L       L99+4,R2   ; __$baudrate
  466 00000340 AFEE               459               BRA         L95
  467 00000342 0214               460               MOV.B       R1,@(R0,R2)
  468 00000344                    461     L85:
  469 00000344 D213               462               MOV.L       L99,R2     ; __$cke
  470 00000346 E300               463               MOV         #0,R3      ; H'00000000
  471 00000348 6043               464               MOV         R4,R0
  472 0000034A E17F               465               MOV         #127,R1    ; H'0000007F
  473 0000034C 0234               466               MOV.B       R3,@(R0,R2)
  474 0000034E D212               467               MOV.L       L99+4,R2   ; __$baudrate
  475 00000350 AFE6               468               BRA         L95
  476 00000352 0214               469               MOV.B       R1,@(R0,R2)
  477 00000354                    470     L87:
  478 00000354 D20F               471               MOV.L       L99,R2     ; __$cke
  479 00000356 E300               472               MOV         #0,R3      ; H'00000000
  480 00000358 6043               473               MOV         R4,R0
  481 0000035A E13F               474               MOV         #63,R1     ; H'0000003F
  482 0000035C 0234               475               MOV.B       R3,@(R0,R2)
  483 0000035E D20E               476               MOV.L       L99+4,R2   ; __$baudrate
  484 00000360 AFDE               477               BRA         L95
  485 00000362 0214               478               MOV.B       R1,@(R0,R2)
  486 00000364                    479     L89:
  487 00000364 D20B               480               MOV.L       L99,R2     ; __$cke
  488 00000366 E300               481               MOV         #0,R3      ; H'00000000
  489 00000368 6043               482               MOV         R4,R0
  490 0000036A E11F               483               MOV         #31,R1     ; H'0000001F
  491 0000036C 0234               484               MOV.B       R3,@(R0,R2)
  492 0000036E D20A               485               MOV.L       L99+4,R2   ; __$baudrate
  493 00000370 AFD6               486               BRA         L95
  494 00000372 0214               487               MOV.B       R1,@(R0,R2)
  495 00000374                    488     L91:
  496 00000374 D207               489               MOV.L       L99,R2     ; __$cke
  497 00000376 E300               490               MOV         #0,R3      ; H'00000000
  498 00000378 6043               491               MOV         R4,R0
  499 0000037A E10F               492               MOV         #15,R1     ; H'0000000F
  500 0000037C 0234               493               MOV.B       R3,@(R0,R2)
  501 0000037E D206               494               MOV.L       L99+4,R2   ; __$baudrate
  502 00000380 AFCE               495               BRA         L95
  503 00000382 0214               496               MOV.B       R1,@(R0,R2)
  504 00000384                    497     L93:
  505 00000384 D203               498               MOV.L       L99,R2     ; __$cke
  506 00000386 E300               499               MOV         #0,R3      ; H'00000000
  507 00000388 6043               500               MOV         R4,R0
  508 0000038A E10A               501               MOV         #10,R1     ; H'0000000A
  509 0000038C 0234               502               MOV.B       R3,@(R0,R2)
  510 0000038E D202               503               MOV.L       L99+4,R2   ; __$baudrate
  511 00000390 AFC6               504               BRA         L95
  512 00000392 0214               505               MOV.B       R1,@(R0,R2)
  513 00000394                    506     L99:
*** SuperH RISC engine ASSEMBLER Ver. 5.1 ***    01/07/08 14:45:04                                                       PAGE    10
PROGRAM NAME =

  514 00000394 00000000           507               .DATA.L     __$cke
  515 00000398 00000000           508               .DATA.L     __$baudrate
  516 00000000                    509               .SECTION    B,DATA,ALIGN=4
  517 00000000                    510     __$baudrate:                     ; static: __$baudrate
  518 00000000 00000002           511               .RES.B      2
  519 00000002                    512     __$cke:                          ; static: __$cke
  520 00000002 00000002           513               .RES.B      2
  521                             514               .END
  *****TOTAL ERRORS       0
  *****TOTAL WARNINGS     0
*** SuperH RISC engine ASSEMBLER Ver. 5.1 ***    01/07/08 14:45:04                                                       PAGE    11

*** CROSS REFERENCE LIST

NAME                             SECTION  ATTR VALUE             SEQUENCE

B                                B        SCT  00000000    516*
L14                              P             0000015C     85   192*
L16                              P             00000142    109   175*
L17                              P             000000D2    114*  177 
L19                              P             0000014E    116   183*
L21                              P             00000148    124   179*
L22                              P             000000EE    129*  181 
L23                              P             000000F0    131*  186 
L25                              P             00000156    134   188*
L26                              P             000000FE    139*  190 
L27                              P             0000012E    164*  266 
L31                              P             000001EA    214   268*
L32                              P             00000190    219*  270 
L34                              P             000001F6    221   276*
L36                              P             000001F0    229   272*
L37                              P             000001AC    234*  274 
L38                              P             000001AE    236*  279 
L40                              P             000001FE    239   281*
L41                              P             000001BC    244*  283 
L44                              P             00000240    288   321*
L46                              P             0000022A    291   308*
L47                              P             0000021A    298*  314 
L49                              P             00000238    301   316*
L50                              P             00000226    305*  319   335   346 
L53                              P             0000025C    324   337*
L54                              P             0000024E    329*  341 
L56                              P             00000266    332   343*
L59                              P             00000282    351   362*
L60                              P             0000027C    357*  365 
L64                              P             000002BA    370   395*
L66                              P             000002B0    382   388*
L67                              P             000002B6    392*  408 
L81                              P             00000324    418   450*
L83                              P             00000334    421   459*
L85                              P             00000344    424   468*
L87                              P             00000354    427   477*
L89                              P             00000364    430   486*
L91                              P             00000374    433   495*
L93                              P             00000384    436   504*
L95                              P             00000320    439   447*  457   466   475   484   493   502   511 
L97                              P             00000280    145   250   360*
L98                              P             000002D6     87   101   193   195   206   325   338   363   396   410*
L99                              P             00000394    440   445   451   456   460   465   469   474   478   483   487   492 
                                                           496   501   505   510   513*
Lrsxxx                           P             00000034     32    43*
P                                P        SCT  00000000      9*
__$baudrate                      B             00000000    413   515   517*
__$cke                           B             00000002    412   514   519*
_scu_io                          P        EXPT 00000000      2    10*
_scu_io_baud                     P        EXPT 000002E4      8    52   415*
_scu_io_err                      P        EXPT 0000007C      3    44    67*
_scu_io_init                     P        EXPT 00000080      4    48    71*
_scu_io_putc                     P        EXPT 0000028A      7    51   367*
_scu_io_scm                      P        EXPT 00000204      5    49   285*
*** SuperH RISC engine ASSEMBLER Ver. 5.1 ***    01/07/08 14:45:04                                                       PAGE    12

*** CROSS REFERENCE LIST

NAME                             SECTION  ATTR VALUE             SEQUENCE

_scu_io_sst                      P        EXPT 0000026E      6    50   348*
jt_scu                           P             00000038     17    47*
scu_exit                         P             00000020     22    31*
*** SuperH RISC engine ASSEMBLER Ver. 5.1 ***    01/07/08 14:45:04                                                       PAGE    13

*** SECTION DATA LIST

SECTION                          ATTRIBUTE    SIZE             START

P                                REL-CODE    00000039C        
B                                REL-DATA    000000004        
