SH SERIES C/C++ Compiler (Ver. checker(2003.03.17))                                              28-May-2015 11:40:43  PAGE    1

************ OBJECT LISTING ************

FILE NAME: prr0093.c

SCT OFFSET   CODE       C LABEL     INSTRUCTION OPERAND    COMMENT

P   00000000              _pr_scan_mlt_parm2:              ; function: pr_scan_mlt_parm2
                                                           ; frame size=16
    00000000 2FC6                   MOV.L       R12,@-R15
    00000002 2FD6                   MOV.L       R13,@-R15
    00000004 2FE6                   MOV.L       R14,@-R15
    00000006 4F22                   STS.L       PR,@-R15
    00000008 8445                   MOV.B       @(5,R4),R0
    0000000A E639                   MOV         #57,R6     ; H'00000039
    0000000C 620C                   EXTU.B      R0,R2
    0000000E 3267                   CMP/GT      R6,R2
    00000010 8F02                   BF/S        L12
    00000012 6E43                   MOV         R4,R14
    00000014 A001                   BRA         L13
    00000016 72C9                   ADD         #-55,R2
    00000018              L12:
    00000018 72D0                   ADD         #-48,R2
    0000001A              L13:
    0000001A DC25                   MOV.L       L15,R12    ; _prr0093s
    0000001C 64E3                   MOV         R14,R4
    0000001E DD25                   MOV.L       L15+4,R13  ; _htoc
    00000020 7406                   ADD         #6,R4
    00000022 4D0B                   JSR         @R13
    00000024 2C20                   MOV.B       R2,@R12
    00000026 80C1                   MOV.B       R0,@(1,R12)
    00000028 64E3                   MOV         R14,R4
    0000002A 4D0B                   JSR         @R13
    0000002C 7408                   ADD         #8,R4
    0000002E 80C2                   MOV.B       R0,@(2,R12)
    00000030 64E3                   MOV         R14,R4
    00000032 4D0B                   JSR         @R13
    00000034 740A                   ADD         #10,R4
    00000036 80C3                   MOV.B       R0,@(3,R12)
    00000038 64E3                   MOV         R14,R4
    0000003A 4D0B                   JSR         @R13
    0000003C 740C                   ADD         #12,R4
    0000003E 80C4                   MOV.B       R0,@(4,R12)
    00000040 64E3                   MOV         R14,R4
    00000042 4D0B                   JSR         @R13
    00000044 740E                   ADD         #14,R4
    00000046 80C5                   MOV.B       R0,@(5,R12)
    00000048 64E3                   MOV         R14,R4
    0000004A 4D0B                   JSR         @R13
    0000004C 7410                   ADD         #16,R4
    0000004E 80C6                   MOV.B       R0,@(6,R12)
    00000050 64E3                   MOV         R14,R4
    00000052 4D0B                   JSR         @R13
    00000054 7412                   ADD         #18,R4
    00000056 80C7                   MOV.B       R0,@(7,R12)
    00000058 64E3                   MOV         R14,R4
    0000005A 4D0B                   JSR         @R13
    0000005C 7414                   ADD         #20,R4
    0000005E 80C8                   MOV.B       R0,@(8,R12)
    00000060 64E3                   MOV         R14,R4
    00000062 4D0B                   JSR         @R13
    00000064 7416                   ADD         #22,R4
    00000066 80C9                   MOV.B       R0,@(9,R12)
    00000068 64E3                   MOV         R14,R4
    0000006A 4D0B                   JSR         @R13
    0000006C 7418                   ADD         #24,R4
    0000006E 80CA                   MOV.B       R0,@(10,R12)
    00000070 64E3                   MOV         R14,R4
    00000072 4D0B                   JSR         @R13
    00000074 741A                   ADD         #26,R4
    00000076 80CB                   MOV.B       R0,@(11,R12)
    00000078 64E3                   MOV         R14,R4
    0000007A 4D0B                   JSR         @R13
    0000007C 741C                   ADD         #28,R4
    0000007E 80CC                   MOV.B       R0,@(12,R12)
    00000080 64E3                   MOV         R14,R4
    00000082 4D0B                   JSR         @R13
    00000084 741E                   ADD         #30,R4
    00000086 80CD                   MOV.B       R0,@(13,R12)
    00000088 64E3                   MOV         R14,R4
    0000008A 4D0B                   JSR         @R13
    0000008C 7420                   ADD         #32,R4
    0000008E 80CE                   MOV.B       R0,@(14,R12)
    00000090 64E3                   MOV         R14,R4
    00000092 4D0B                   JSR         @R13
    00000094 7422                   ADD         #34,R4
    00000096 80CF                   MOV.B       R0,@(15,R12)
    00000098 7E24                   ADD         #36,R14
    0000009A 4D0B                   JSR         @R13
    0000009C 64E3                   MOV         R14,R4
    0000009E 6203                   MOV         R0,R2
    000000A0 E010                   MOV         #16,R0     ; H'00000010
    000000A2 0C24                   MOV.B       R2,@(R0,R12)
    000000A4 E000                   MOV         #0,R0      ; H'00000000
    000000A6 4F26                   LDS.L       @R15+,PR
    000000A8 6EF6                   MOV.L       @R15+,R14
    000000AA 6DF6                   MOV.L       @R15+,R13
    000000AC 000B                   RTS
    000000AE 6CF6                   MOV.L       @R15+,R12
    000000B0              L15:
    000000B0 <00000000>             .DATA.L     _prr0093s
    000000B4 <00000000>             .DATA.L     _htoc
B   00000000              _prr0093s:                       ; static: prr0093s
    00000000 00000001               .RES.B      17
SH SERIES C/C++ Compiler (Ver. checker(2003.03.17))                                              28-May-2015 11:40:43  PAGE    1


******** STATISTICS INFORMATION ********


********** ERROR INFORMATION ***********

NUMBER OF ERRORS:           0
NUMBER OF WARNINGS:         0
NUMBER OF INFORMATIONS:     0



******* SOURCE LINE INFORMATION ********

COMPILED SOURCE LINE:       70



******* SECTION SIZE INFORMATION *******

PROGRAM  SECTION (P):                               000000B8 Byte(s)
CONSTANT SECTION (C):                               00000000 Byte(s)
DATA     SECTION (D):                               00000000 Byte(s)
BSS      SECTION (B):                               00000011 Byte(s)

TOTAL PROGRAM  SECTION: 000000B8 Byte(s)
TOTAL CONSTANT SECTION: 00000000 Byte(s)
TOTAL DATA     SECTION: 00000000 Byte(s)
TOTAL BSS      SECTION: 00000011 Byte(s)

    TOTAL PROGRAM SIZE: 000000C9 Byte(s)



********** LABEL INFORMATION ***********

NUMBER OF EXTERNAL REFERENCE SYMBOLS:            1
NUMBER OF EXTERNAL DEFINITION SYMBOLS:           2
NUMBER OF INTERNAL/EXTERNAL SYMBOLS:             6
*** COMMAND PARAMETER ***


  -cpu=sh3 -op=1 -en=big -me -nodebug -comment=nest -l -def=NDEBUG -i=P:\PRESTO2\SHINC,d:\home\tool\7_1_1\include,P:\PRESTO2\NORTI_12\inc prr0093.c 

