SH SERIES C/C++ Compiler (Ver. checker(2003.03.17))                                              28-May-2015 11:40:56  PAGE    1

************ OBJECT LISTING ************

FILE NAME: prr0099.c

SCT OFFSET   CODE       C LABEL     INSTRUCTION OPERAND    COMMENT

P   00000000              _pr_scan_sh_parm:                ; function: pr_scan_sh_parm
                                                           ; frame size=40
    00000000 2F86                   MOV.L       R8,@-R15
    00000002 2F96                   MOV.L       R9,@-R15
    00000004 2FA6                   MOV.L       R10,@-R15
    00000006 2FB6                   MOV.L       R11,@-R15
    00000008 2FC6                   MOV.L       R12,@-R15
    0000000A 2FD6                   MOV.L       R13,@-R15
    0000000C 2FE6                   MOV.L       R14,@-R15
    0000000E 4F22                   STS.L       PR,@-R15
    00000010 4F12                   STS.L       MACL,@-R15
    00000012 7FFC                   ADD         #-4,R15
    00000014 8445                   MOV.B       @(5,R4),R0
    00000016 E739                   MOV         #57,R7     ; H'00000039
    00000018 620C                   EXTU.B      R0,R2
    0000001A 3277                   CMP/GT      R7,R2
    0000001C 8B01                   BF          L12
    0000001E A001                   BRA         L13
    00000020 72C9                   ADD         #-55,R2
    00000022              L12:
    00000022 72D0                   ADD         #-48,R2
    00000024              L13:
    00000024 D545                   MOV.L       L33+2,R5   ; _prr0099s
    00000026 2520                   MOV.B       R2,@R5
    00000028 8446                   MOV.B       @(6,R4),R0
    0000002A 620C                   EXTU.B      R0,R2
    0000002C 3277                   CMP/GT      R7,R2
    0000002E 8B01                   BF          L15
    00000030 A001                   BRA         L16
    00000032 72C9                   ADD         #-55,R2
    00000034              L15:
    00000034 72D0                   ADD         #-48,R2
    00000036              L16:
    00000036 6023                   MOV         R2,R0
    00000038 8051                   MOV.B       R0,@(1,R5)
    0000003A 8447                   MOV.B       @(7,R4),R0
    0000003C 620C                   EXTU.B      R0,R2
    0000003E 3277                   CMP/GT      R7,R2
    00000040 8B01                   BF          L18
    00000042 A001                   BRA         L19
    00000044 72C9                   ADD         #-55,R2
    00000046              L18:
    00000046 72D0                   ADD         #-48,R2
    00000048              L19:
    00000048 6023                   MOV         R2,R0
    0000004A 8052                   MOV.B       R0,@(2,R5)
    0000004C 8451                   MOV.B       @(1,R5),R0
    0000004E 652C                   EXTU.B      R2,R5
    00000050 75FF                   ADD         #-1,R5
    00000052 6B43                   MOV         R4,R11
    00000054 7B08                   ADD         #8,R11
    00000056 2F52                   MOV.L       R5,@R15
    00000058 A061                   BRA         L20
    0000005A 680C                   EXTU.B      R0,R8
    0000005C              L21:
    0000005C 62B0                   MOV.B       @R11,R2
    0000005E E739                   MOV         #57,R7     ; H'00000039
    00000060 DA37                   MOV.L       L33+6,R10  ; H'00000003+_prr0099s
    00000062 622C                   EXTU.B      R2,R2
    00000064 D937                   MOV.L       L33+10,R9  ; _htoc
    00000066 3277                   CMP/GT      R7,R2
    00000068 8B02                   BF          L23
    0000006A 72C9                   ADD         #-55,R2
    0000006C A002                   BRA         L24
    0000006E 6623                   MOV         R2,R6
    00000070              L23:
    00000070 72D0                   ADD         #-48,R2
    00000072 6623                   MOV         R2,R6
    00000074              L24:
    00000074 E227                   MOV         #39,R2     ; H'00000027
    00000076 0257                   MUL.L       R5,R2
    00000078 7B01                   ADD         #1,R11
    0000007A 64B3                   MOV         R11,R4
    0000007C 7B02                   ADD         #2,R11
    0000007E 0C1A                   STS         MACL,R12
    00000080 60C3                   MOV         R12,R0
    00000082 490B                   JSR         @R9
    00000084 0A64                   MOV.B       R6,@(R0,R10)
    00000086 62A3                   MOV         R10,R2
    00000088 7201                   ADD         #1,R2
    0000008A 6603                   MOV         R0,R6
    0000008C 60C3                   MOV         R12,R0
    0000008E 0264                   MOV.B       R6,@(R0,R2)
    00000090 490B                   JSR         @R9
    00000092 64B3                   MOV         R11,R4
    00000094 62A3                   MOV         R10,R2
    00000096 7202                   ADD         #2,R2
    00000098 6603                   MOV         R0,R6
    0000009A 60C3                   MOV         R12,R0
    0000009C 0264                   MOV.B       R6,@(R0,R2)
    0000009E 7B02                   ADD         #2,R11
    000000A0 64B3                   MOV         R11,R4
    000000A2 490B                   JSR         @R9
    000000A4 7B02                   ADD         #2,R11
    000000A6 62A3                   MOV         R10,R2
    000000A8 7203                   ADD         #3,R2
    000000AA 6603                   MOV         R0,R6
    000000AC 60C3                   MOV         R12,R0
    000000AE 0264                   MOV.B       R6,@(R0,R2)
    000000B0 E739                   MOV         #57,R7     ; H'00000039
    000000B2 62B0                   MOV.B       @R11,R2
    000000B4 622C                   EXTU.B      R2,R2
    000000B6 3277                   CMP/GT      R7,R2
    000000B8 8B02                   BF          L26
    000000BA 72C9                   ADD         #-55,R2
    000000BC A002                   BRA         L27
    000000BE 6623                   MOV         R2,R6
    000000C0              L26:
    000000C0 72D0                   ADD         #-48,R2
    000000C2 6623                   MOV         R2,R6
    000000C4              L27:
    000000C4 62A3                   MOV         R10,R2
    000000C6 7204                   ADD         #4,R2
    000000C8 60C3                   MOV         R12,R0
    000000CA 0264                   MOV.B       R6,@(R0,R2)
    000000CC 7B01                   ADD         #1,R11
    000000CE 64B3                   MOV         R11,R4
    000000D0 490B                   JSR         @R9
    000000D2 7B02                   ADD         #2,R11
    000000D4 62A3                   MOV         R10,R2
    000000D6 7205                   ADD         #5,R2
    000000D8 6603                   MOV         R0,R6
    000000DA 60C3                   MOV         R12,R0
    000000DC 0264                   MOV.B       R6,@(R0,R2)
    000000DE 490B                   JSR         @R9
    000000E0 64B3                   MOV         R11,R4
    000000E2 62A3                   MOV         R10,R2
    000000E4 7206                   ADD         #6,R2
    000000E6 6D03                   MOV         R0,R13
    000000E8 60C3                   MOV         R12,R0
    000000EA 02D4                   MOV.B       R13,@(R0,R2)
    000000EC 62A3                   MOV         R10,R2
    000000EE 7205                   ADD         #5,R2
    000000F0 60C3                   MOV         R12,R0
    000000F2 062C                   MOV.B       @(R0,R2),R6
    000000F4 3ACC                   ADD         R12,R10
    000000F6 7B02                   ADD         #2,R11
    000000F8 6DDC                   EXTU.B      R13,R13
    000000FA 6E6C                   EXTU.B      R6,R14
    000000FC 7DFF                   ADD         #-1,R13
    000000FE A008                   BRA         L28
    00000100 7A07                   ADD         #7,R10
    00000102              L29:
    00000102 64B3                   MOV         R11,R4
    00000104 490B                   JSR         @R9
    00000106 7B02                   ADD         #2,R11
    00000108 6203                   MOV         R0,R2
    0000010A 60D3                   MOV         R13,R0
    0000010C 0A24                   MOV.B       R2,@(R0,R10)
    0000010E 7D01                   ADD         #1,R13
    00000110 7EFF                   ADD         #-1,R14
    00000112              L28:
    00000112 2EE8                   TST         R14,R14
    00000114 8BF5                   BF          L29
    00000116 65F2                   MOV.L       @R15,R5
    00000118 78FF                   ADD         #-1,R8
    0000011A 7501                   ADD         #1,R5
    0000011C 2F52                   MOV.L       R5,@R15
    0000011E              L20:
    0000011E 2888                   TST         R8,R8
    00000120 8B9C                   BF          L21
    00000122 E000                   MOV         #0,R0      ; H'00000000
    00000124 7F04                   ADD         #4,R15
    00000126 4F16                   LDS.L       @R15+,MACL
    00000128 4F26                   LDS.L       @R15+,PR
    0000012A 6EF6                   MOV.L       @R15+,R14
    0000012C 6DF6                   MOV.L       @R15+,R13
    0000012E 6CF6                   MOV.L       @R15+,R12
    00000130 6BF6                   MOV.L       @R15+,R11
    00000132 6AF6                   MOV.L       @R15+,R10
    00000134 69F6                   MOV.L       @R15+,R9
    00000136 000B                   RTS
    00000138 68F6                   MOV.L       @R15+,R8
    0000013A              L33:
    0000013A 00000002               .RES.W      1
    0000013C <00000000>             .DATA.L     _prr0099s
    00000140 <00000003>             .DATA.L     H'00000003+_prr0099s
    00000144 <00000000>             .DATA.L     _htoc
B   00000000              _prr0099s:                       ; static: prr0099s
    00000000 00000001               .RES.B      315
SH SERIES C/C++ Compiler (Ver. checker(2003.03.17))                                              28-May-2015 11:40:56  PAGE    1


******** STATISTICS INFORMATION ********


********** ERROR INFORMATION ***********

NUMBER OF ERRORS:           0
NUMBER OF WARNINGS:         0
NUMBER OF INFORMATIONS:     0



******* SOURCE LINE INFORMATION ********

COMPILED SOURCE LINE:       79



******* SECTION SIZE INFORMATION *******

PROGRAM  SECTION (P):                               00000148 Byte(s)
CONSTANT SECTION (C):                               00000000 Byte(s)
DATA     SECTION (D):                               00000000 Byte(s)
BSS      SECTION (B):                               0000013B Byte(s)

TOTAL PROGRAM  SECTION: 00000148 Byte(s)
TOTAL CONSTANT SECTION: 00000000 Byte(s)
TOTAL DATA     SECTION: 00000000 Byte(s)
TOTAL BSS      SECTION: 0000013B Byte(s)

    TOTAL PROGRAM SIZE: 00000283 Byte(s)



********** LABEL INFORMATION ***********

NUMBER OF EXTERNAL REFERENCE SYMBOLS:            1
NUMBER OF EXTERNAL DEFINITION SYMBOLS:           2
NUMBER OF INTERNAL/EXTERNAL SYMBOLS:            18
*** COMMAND PARAMETER ***


  -cpu=sh3 -op=1 -en=big -me -nodebug -comment=nest -l -def=NDEBUG -i=P:\PRESTO2\SHINC,d:\home\tool\7_1_1\include,P:\PRESTO2\NORTI_12\inc prr0099.c 

