SH SERIES C/C++ Compiler (Ver. checker(2003.03.17))                                              16-Nov-2009 12:33:11  PAGE    1

************ OBJECT LISTING ************

FILE NAME: pri0017.c

SCT OFFSET   CODE       C LABEL     INSTRUCTION OPERAND    COMMENT

P   00000000              _pr_scan_error:                  ; function: pr_scan_error
                                                           ; frame size=8
    00000000 2FE6                   MOV.L       R14,@-R15
    00000002 4F22                   STS.L       PR,@-R15
    00000004 6E43                   MOV         R4,R14
    00000006 84E5                   MOV.B       @(5,R14),R0
    00000008 6603                   MOV         R0,R6
    0000000A 626C                   EXTU.B      R6,R2
    0000000C 622C                   EXTU.B      R2,R2
    0000000E E339                   MOV         #57,R3     ; H'00000039
    00000010 3237                   CMP/GT      R3,R2
    00000012 8B07                   BF          L12
    00000014 84E5                   MOV.B       @(5,R14),R0
    00000016 6203                   MOV         R0,R2
    00000018 662C                   EXTU.B      R2,R6
    0000001A 666C                   EXTU.B      R6,R6
    0000001C 6263                   MOV         R6,R2
    0000001E 72C9                   ADD         #-55,R2
    00000020 A005                   BRA         L13
    00000022 0009                   NOP
    00000024              L12:
    00000024 84E5                   MOV.B       @(5,R14),R0
    00000026 6603                   MOV         R0,R6
    00000028 626C                   EXTU.B      R6,R2
    0000002A 622C                   EXTU.B      R2,R2
    0000002C 72D0                   ADD         #-48,R2
    0000002E              L13:
    0000002E 6323                   MOV         R2,R3
    00000030 D143                   MOV.L       L21+2,R1   ; _pri0017s
    00000032 2130                   MOV.B       R3,@R1
    00000034 64E3                   MOV         R14,R4
    00000036 7406                   ADD         #6,R4
    00000038 D342                   MOV.L       L21+6,R3   ; _htoc
    0000003A 430B                   JSR         @R3
    0000003C 0009                   NOP
    0000003E 6603                   MOV         R0,R6
    00000040 626C                   EXTU.B      R6,R2
    00000042 622C                   EXTU.B      R2,R2
    00000044 6323                   MOV         R2,R3
    00000046 D140                   MOV.L       L21+10,R1  ; H'00000004+_pri0017s
    00000048 2132                   MOV.L       R3,@R1
    0000004A 64E3                   MOV         R14,R4
    0000004C 7408                   ADD         #8,R4
    0000004E D33F                   MOV.L       L21+14,R3  ; _htol
    00000050 430B                   JSR         @R3
    00000052 0009                   NOP
    00000054 6303                   MOV         R0,R3
    00000056 D13E                   MOV.L       L21+18,R1  ; H'00000008+_pri0017s
    00000058 2132                   MOV.L       R3,@R1
    0000005A 64E3                   MOV         R14,R4
    0000005C 7410                   ADD         #16,R4
    0000005E D33B                   MOV.L       L21+14,R3  ; _htol
    00000060 430B                   JSR         @R3
    00000062 0009                   NOP
    00000064 6303                   MOV         R0,R3
    00000066 D13B                   MOV.L       L21+22,R1  ; H'0000000C+_pri0017s
    00000068 2132                   MOV.L       R3,@R1
    0000006A 64E3                   MOV         R14,R4
    0000006C 7418                   ADD         #24,R4
    0000006E D337                   MOV.L       L21+14,R3  ; _htol
    00000070 430B                   JSR         @R3
    00000072 0009                   NOP
    00000074 6303                   MOV         R0,R3
    00000076 D138                   MOV.L       L21+26,R1  ; H'00000010+_pri0017s
    00000078 2132                   MOV.L       R3,@R1
    0000007A 64E3                   MOV         R14,R4
    0000007C 7420                   ADD         #32,R4
    0000007E D337                   MOV.L       L21+30,R3  ; _htoi
    00000080 430B                   JSR         @R3
    00000082 0009                   NOP
    00000084 6203                   MOV         R0,R2
    00000086 632D                   EXTU.W      R2,R3
    00000088 D135                   MOV.L       L21+34,R1  ; H'00000014+_pri0017s
    0000008A 2131                   MOV.W       R3,@R1
    0000008C 64E3                   MOV         R14,R4
    0000008E 7424                   ADD         #36,R4
    00000090 D332                   MOV.L       L21+30,R3  ; _htoi
    00000092 430B                   JSR         @R3
    00000094 0009                   NOP
    00000096 6203                   MOV         R0,R2
    00000098 632D                   EXTU.W      R2,R3
    0000009A D132                   MOV.L       L21+38,R1  ; H'00000016+_pri0017s
    0000009C 2131                   MOV.W       R3,@R1
    0000009E 64E3                   MOV         R14,R4
    000000A0 7428                   ADD         #40,R4
    000000A2 D32E                   MOV.L       L21+30,R3  ; _htoi
    000000A4 430B                   JSR         @R3
    000000A6 0009                   NOP
    000000A8 6203                   MOV         R0,R2
    000000AA 632D                   EXTU.W      R2,R3
    000000AC D12E                   MOV.L       L21+42,R1  ; H'00000018+_pri0017s
    000000AE 2131                   MOV.W       R3,@R1
    000000B0 64E3                   MOV         R14,R4
    000000B2 742C                   ADD         #44,R4
    000000B4 D323                   MOV.L       L21+6,R3   ; _htoc
    000000B6 430B                   JSR         @R3
    000000B8 0009                   NOP
    000000BA 6203                   MOV         R0,R2
    000000BC 632C                   EXTU.B      R2,R3
    000000BE D12B                   MOV.L       L21+46,R1  ; H'0000001A+_pri0017s
    000000C0 2130                   MOV.B       R3,@R1
    000000C2 64E3                   MOV         R14,R4
    000000C4 742E                   ADD         #46,R4
    000000C6 D321                   MOV.L       L21+14,R3  ; _htol
    000000C8 430B                   JSR         @R3
    000000CA 0009                   NOP
    000000CC 6303                   MOV         R0,R3
    000000CE D128                   MOV.L       L21+50,R1  ; H'0000001C+_pri0017s
    000000D0 2132                   MOV.L       R3,@R1
    000000D2 E036                   MOV         #54,R0     ; H'00000036
    000000D4 02EC                   MOV.B       @(R0,R14),R2
    000000D6 662C                   EXTU.B      R2,R6
    000000D8 666C                   EXTU.B      R6,R6
    000000DA E339                   MOV         #57,R3     ; H'00000039
    000000DC 3637                   CMP/GT      R3,R6
    000000DE 8B07                   BF          L15
    000000E0 E036                   MOV         #54,R0     ; H'00000036
    000000E2 02EC                   MOV.B       @(R0,R14),R2
    000000E4 662C                   EXTU.B      R2,R6
    000000E6 666C                   EXTU.B      R6,R6
    000000E8 6263                   MOV         R6,R2
    000000EA 72C9                   ADD         #-55,R2
    000000EC A006                   BRA         L16
    000000EE 0009                   NOP
    000000F0              L15:
    000000F0 E036                   MOV         #54,R0     ; H'00000036
    000000F2 02EC                   MOV.B       @(R0,R14),R2
    000000F4 662C                   EXTU.B      R2,R6
    000000F6 666C                   EXTU.B      R6,R6
    000000F8 6263                   MOV         R6,R2
    000000FA 72D0                   ADD         #-48,R2
    000000FC              L16:
    000000FC 6323                   MOV         R2,R3
    000000FE D11D                   MOV.L       L21+54,R1  ; H'00000020+_pri0017s
    00000100 2130                   MOV.B       R3,@R1
    00000102 E037                   MOV         #55,R0     ; H'00000037
    00000104 02EC                   MOV.B       @(R0,R14),R2
    00000106 662C                   EXTU.B      R2,R6
    00000108 666C                   EXTU.B      R6,R6
    0000010A E339                   MOV         #57,R3     ; H'00000039
    0000010C 3637                   CMP/GT      R3,R6
    0000010E 8B07                   BF          L18
    00000110 E037                   MOV         #55,R0     ; H'00000037
    00000112 02EC                   MOV.B       @(R0,R14),R2
    00000114 662C                   EXTU.B      R2,R6
    00000116 666C                   EXTU.B      R6,R6
    00000118 6263                   MOV         R6,R2
    0000011A 72C9                   ADD         #-55,R2
    0000011C A006                   BRA         L19
    0000011E 0009                   NOP
    00000120              L18:
    00000120 E037                   MOV         #55,R0     ; H'00000037
    00000122 02EC                   MOV.B       @(R0,R14),R2
    00000124 662C                   EXTU.B      R2,R6
    00000126 666C                   EXTU.B      R6,R6
    00000128 6263                   MOV         R6,R2
    0000012A 72D0                   ADD         #-48,R2
    0000012C              L19:
    0000012C 6323                   MOV         R2,R3
    0000012E D112                   MOV.L       L21+58,R1  ; H'00000021+_pri0017s
    00000130 2130                   MOV.B       R3,@R1
    00000132 E200                   MOV         #0,R2      ; H'00000000
    00000134 6023                   MOV         R2,R0
    00000136 4F26                   LDS.L       @R15+,PR
    00000138 6EF6                   MOV.L       @R15+,R14
    0000013A 000B                   RTS
    0000013C 0009                   NOP
    0000013E              L21:
    0000013E 00000002               .RES.W      1
    00000140 <00000000>             .DATA.L     _pri0017s
    00000144 <00000000>             .DATA.L     _htoc
    00000148 <00000004>             .DATA.L     H'00000004+_pri0017s
    0000014C <00000000>             .DATA.L     _htol
    00000150 <00000008>             .DATA.L     H'00000008+_pri0017s
    00000154 <0000000C>             .DATA.L     H'0000000C+_pri0017s
    00000158 <00000010>             .DATA.L     H'00000010+_pri0017s
    0000015C <00000000>             .DATA.L     _htoi
    00000160 <00000014>             .DATA.L     H'00000014+_pri0017s
    00000164 <00000016>             .DATA.L     H'00000016+_pri0017s
    00000168 <00000018>             .DATA.L     H'00000018+_pri0017s
    0000016C <0000001A>             .DATA.L     H'0000001A+_pri0017s
    00000170 <0000001C>             .DATA.L     H'0000001C+_pri0017s
    00000174 <00000020>             .DATA.L     H'00000020+_pri0017s
    00000178 <00000021>             .DATA.L     H'00000021+_pri0017s
B   00000000              _pri0017s:                       ; static: pri0017s
    00000000 00000004               .RES.L      9
SH SERIES C/C++ Compiler (Ver. checker(2003.03.17))                                              16-Nov-2009 12:33:11  PAGE    1


******** STATISTICS INFORMATION ********


********** ERROR INFORMATION ***********

NUMBER OF ERRORS:           0
NUMBER OF WARNINGS:         0
NUMBER OF INFORMATIONS:     0



******* SOURCE LINE INFORMATION ********

COMPILED SOURCE LINE:       63



******* SECTION SIZE INFORMATION *******

PROGRAM  SECTION (P):                               0000017C Byte(s)
CONSTANT SECTION (C):                               00000000 Byte(s)
DATA     SECTION (D):                               00000000 Byte(s)
BSS      SECTION (B):                               00000024 Byte(s)

TOTAL PROGRAM  SECTION: 0000017C Byte(s)
TOTAL CONSTANT SECTION: 00000000 Byte(s)
TOTAL DATA     SECTION: 00000000 Byte(s)
TOTAL BSS      SECTION: 00000024 Byte(s)

    TOTAL PROGRAM SIZE: 000001A0 Byte(s)



********** LABEL INFORMATION ***********

NUMBER OF EXTERNAL REFERENCE SYMBOLS:            3
NUMBER OF EXTERNAL DEFINITION SYMBOLS:           2
NUMBER OF INTERNAL/EXTERNAL SYMBOLS:            12
*** COMMAND PARAMETER ***


  -cpu=sh3 -op=0 -en=big -me -debug -comment=nest -l -def=DEBUG -i=P:\PRESTO2\SHINC,C:\usr\local\SH\7_1_1\include,P:\PRESTO2\NORTI_12\inc pri0017.c 

