SH SERIES C/C++ Compiler (Ver. checker(2003.03.17))                                              16-Nov-2009 12:33:29  PAGE    1

************ OBJECT LISTING ************

FILE NAME: prr0016.c

SCT OFFSET   CODE       C LABEL     INSTRUCTION OPERAND    COMMENT

P   00000000              _pr_print_fd_spec:               ; function: pr_print_fd_spec
                                                           ; frame size=12
    00000000 2FD6                   MOV.L       R13,@-R15
    00000002 2FE6                   MOV.L       R14,@-R15
    00000004 4F22                   STS.L       PR,@-R15
    00000006 6E53                   MOV         R5,R14
    00000008 6D43                   MOV         R4,R13
    0000000A 62E0                   MOV.B       @R14,R2
    0000000C 642C                   EXTU.B      R2,R4
    0000000E 65D3                   MOV         R13,R5
    00000010 7505                   ADD         #5,R5
    00000012 644C                   EXTU.B      R4,R4
    00000014 D352                   MOV.L       L39,R3     ; _ctoh
    00000016 430B                   JSR         @R3
    00000018 0009                   NOP
    0000001A 54E1                   MOV.L       @(4,R14),R4
    0000001C 65D3                   MOV         R13,R5
    0000001E 7507                   ADD         #7,R5
    00000020 D350                   MOV.L       L39+4,R3   ; _ltoh
    00000022 430B                   JSR         @R3
    00000024 0009                   NOP
    00000026 52E2                   MOV.L       @(8,R14),R2
    00000028 E309                   MOV         #9,R3      ; H'00000009
    0000002A 3237                   CMP/GT      R3,R2
    0000002C 8B03                   BF          L12
    0000002E 52E2                   MOV.L       @(8,R14),R2
    00000030 7237                   ADD         #55,R2
    00000032 A002                   BRA         L13
    00000034 0009                   NOP
    00000036              L12:
    00000036 52E2                   MOV.L       @(8,R14),R2
    00000038 7230                   ADD         #48,R2
    0000003A              L13:
    0000003A 6023                   MOV         R2,R0
    0000003C 80DF                   MOV.B       R0,@(15,R13)
    0000003E 84EC                   MOV.B       @(12,R14),R0
    00000040 6603                   MOV         R0,R6
    00000042 626C                   EXTU.B      R6,R2
    00000044 622C                   EXTU.B      R2,R2
    00000046 E309                   MOV         #9,R3      ; H'00000009
    00000048 3237                   CMP/GT      R3,R2
    0000004A 8B07                   BF          L15
    0000004C 84EC                   MOV.B       @(12,R14),R0
    0000004E 6203                   MOV         R0,R2
    00000050 662C                   EXTU.B      R2,R6
    00000052 666C                   EXTU.B      R6,R6
    00000054 6263                   MOV         R6,R2
    00000056 7237                   ADD         #55,R2
    00000058 A005                   BRA         L16
    0000005A 0009                   NOP
    0000005C              L15:
    0000005C 84EC                   MOV.B       @(12,R14),R0
    0000005E 6603                   MOV         R0,R6
    00000060 626C                   EXTU.B      R6,R2
    00000062 622C                   EXTU.B      R2,R2
    00000064 7230                   ADD         #48,R2
    00000066              L16:
    00000066 E010                   MOV         #16,R0     ; H'00000010
    00000068 0D24                   MOV.B       R2,@(R0,R13)
    0000006A 84ED                   MOV.B       @(13,R14),R0
    0000006C 6203                   MOV         R0,R2
    0000006E 662C                   EXTU.B      R2,R6
    00000070 666C                   EXTU.B      R6,R6
    00000072 E309                   MOV         #9,R3      ; H'00000009
    00000074 3637                   CMP/GT      R3,R6
    00000076 8B07                   BF          L18
    00000078 84ED                   MOV.B       @(13,R14),R0
    0000007A 6203                   MOV         R0,R2
    0000007C 662C                   EXTU.B      R2,R6
    0000007E 666C                   EXTU.B      R6,R6
    00000080 6263                   MOV         R6,R2
    00000082 7237                   ADD         #55,R2
    00000084 A006                   BRA         L19
    00000086 0009                   NOP
    00000088              L18:
    00000088 84ED                   MOV.B       @(13,R14),R0
    0000008A 6203                   MOV         R0,R2
    0000008C 662C                   EXTU.B      R2,R6
    0000008E 666C                   EXTU.B      R6,R6
    00000090 6263                   MOV         R6,R2
    00000092 7230                   ADD         #48,R2
    00000094              L19:
    00000094 E011                   MOV         #17,R0     ; H'00000011
    00000096 0D24                   MOV.B       R2,@(R0,R13)
    00000098 84EE                   MOV.B       @(14,R14),R0
    0000009A 6203                   MOV         R0,R2
    0000009C 662C                   EXTU.B      R2,R6
    0000009E 666C                   EXTU.B      R6,R6
    000000A0 E309                   MOV         #9,R3      ; H'00000009
    000000A2 3637                   CMP/GT      R3,R6
    000000A4 8B07                   BF          L21
    000000A6 84EE                   MOV.B       @(14,R14),R0
    000000A8 6203                   MOV         R0,R2
    000000AA 662C                   EXTU.B      R2,R6
    000000AC 666C                   EXTU.B      R6,R6
    000000AE 6263                   MOV         R6,R2
    000000B0 7237                   ADD         #55,R2
    000000B2 A006                   BRA         L22
    000000B4 0009                   NOP
    000000B6              L21:
    000000B6 84EE                   MOV.B       @(14,R14),R0
    000000B8 6203                   MOV         R0,R2
    000000BA 662C                   EXTU.B      R2,R6
    000000BC 666C                   EXTU.B      R6,R6
    000000BE 6263                   MOV         R6,R2
    000000C0 7230                   ADD         #48,R2
    000000C2              L22:
    000000C2 E012                   MOV         #18,R0     ; H'00000012
    000000C4 0D24                   MOV.B       R2,@(R0,R13)
    000000C6 52E4                   MOV.L       @(16,R14),R2
    000000C8 E309                   MOV         #9,R3      ; H'00000009
    000000CA 3237                   CMP/GT      R3,R2
    000000CC 8B03                   BF          L24
    000000CE 52E4                   MOV.L       @(16,R14),R2
    000000D0 7237                   ADD         #55,R2
    000000D2 A002                   BRA         L25
    000000D4 0009                   NOP
    000000D6              L24:
    000000D6 52E4                   MOV.L       @(16,R14),R2
    000000D8 7230                   ADD         #48,R2
    000000DA              L25:
    000000DA E013                   MOV         #19,R0     ; H'00000013
    000000DC 0D24                   MOV.B       R2,@(R0,R13)
    000000DE 52E5                   MOV.L       @(20,R14),R2
    000000E0 E309                   MOV         #9,R3      ; H'00000009
    000000E2 3237                   CMP/GT      R3,R2
    000000E4 8B03                   BF          L27
    000000E6 52E5                   MOV.L       @(20,R14),R2
    000000E8 7237                   ADD         #55,R2
    000000EA A002                   BRA         L28
    000000EC 0009                   NOP
    000000EE              L27:
    000000EE 52E5                   MOV.L       @(20,R14),R2
    000000F0 7230                   ADD         #48,R2
    000000F2              L28:
    000000F2 E014                   MOV         #20,R0     ; H'00000014
    000000F4 0D24                   MOV.B       R2,@(R0,R13)
    000000F6 52E6                   MOV.L       @(24,R14),R2
    000000F8 E309                   MOV         #9,R3      ; H'00000009
    000000FA 3237                   CMP/GT      R3,R2
    000000FC 8B03                   BF          L30
    000000FE 52E6                   MOV.L       @(24,R14),R2
    00000100 7237                   ADD         #55,R2
    00000102 A002                   BRA         L31
    00000104 0009                   NOP
    00000106              L30:
    00000106 52E6                   MOV.L       @(24,R14),R2
    00000108 7230                   ADD         #48,R2
    0000010A              L31:
    0000010A E015                   MOV         #21,R0     ; H'00000015
    0000010C 0D24                   MOV.B       R2,@(R0,R13)
    0000010E E01C                   MOV         #28,R0     ; H'0000001C
    00000110 02EC                   MOV.B       @(R0,R14),R2
    00000112 642C                   EXTU.B      R2,R4
    00000114 65D3                   MOV         R13,R5
    00000116 7516                   ADD         #22,R5
    00000118 644C                   EXTU.B      R4,R4
    0000011A D311                   MOV.L       L39,R3     ; _ctoh
    0000011C 430B                   JSR         @R3
    0000011E 0009                   NOP
    00000120 52E8                   MOV.L       @(32,R14),R2
    00000122 E309                   MOV         #9,R3      ; H'00000009
    00000124 3237                   CMP/GT      R3,R2
    00000126 8B03                   BF          L33
    00000128 52E8                   MOV.L       @(32,R14),R2
    0000012A 7237                   ADD         #55,R2
    0000012C A002                   BRA         L34
    0000012E 0009                   NOP
    00000130              L33:
    00000130 52E8                   MOV.L       @(32,R14),R2
    00000132 7230                   ADD         #48,R2
    00000134              L34:
    00000134 E018                   MOV         #24,R0     ; H'00000018
    00000136 0D24                   MOV.B       R2,@(R0,R13)
    00000138 52E9                   MOV.L       @(36,R14),R2
    0000013A E309                   MOV         #9,R3      ; H'00000009
    0000013C 3237                   CMP/GT      R3,R2
    0000013E 8B03                   BF          L36
    00000140 52E9                   MOV.L       @(36,R14),R2
    00000142 7237                   ADD         #55,R2
    00000144 A002                   BRA         L37
    00000146 0009                   NOP
    00000148              L36:
    00000148 52E9                   MOV.L       @(36,R14),R2
    0000014A 7230                   ADD         #48,R2
    0000014C              L37:
    0000014C E019                   MOV         #25,R0     ; H'00000019
    0000014E 0D24                   MOV.B       R2,@(R0,R13)
    00000150 7D1A                   ADD         #26,R13
    00000152 62D3                   MOV         R13,R2
    00000154 6023                   MOV         R2,R0
    00000156 4F26                   LDS.L       @R15+,PR
    00000158 6EF6                   MOV.L       @R15+,R14
    0000015A 6DF6                   MOV.L       @R15+,R13
    0000015C 000B                   RTS
    0000015E 0009                   NOP
    00000160              L39:
    00000160 <00000000>             .DATA.L     _ctoh
    00000164 <00000000>             .DATA.L     _ltoh
SH SERIES C/C++ Compiler (Ver. checker(2003.03.17))                                              16-Nov-2009 12:33:29  PAGE    1


******** STATISTICS INFORMATION ********


********** ERROR INFORMATION ***********

NUMBER OF ERRORS:           0
NUMBER OF WARNINGS:         0
NUMBER OF INFORMATIONS:     0



******* SOURCE LINE INFORMATION ********

COMPILED SOURCE LINE:       63



******* SECTION SIZE INFORMATION *******

PROGRAM  SECTION (P):                               00000168 Byte(s)
CONSTANT SECTION (C):                               00000000 Byte(s)
DATA     SECTION (D):                               00000000 Byte(s)
BSS      SECTION (B):                               00000000 Byte(s)

TOTAL PROGRAM  SECTION: 00000168 Byte(s)
TOTAL CONSTANT SECTION: 00000000 Byte(s)
TOTAL DATA     SECTION: 00000000 Byte(s)
TOTAL BSS      SECTION: 00000000 Byte(s)

    TOTAL PROGRAM SIZE: 00000168 Byte(s)



********** LABEL INFORMATION ***********

NUMBER OF EXTERNAL REFERENCE SYMBOLS:            2
NUMBER OF EXTERNAL DEFINITION SYMBOLS:           1
NUMBER OF INTERNAL/EXTERNAL SYMBOLS:            22
*** COMMAND PARAMETER ***


  -cpu=sh3 -op=0 -en=big -me -debug -comment=nest -l -def=DEBUG -i=P:\PRESTO2\SHINC,C:\usr\local\SH\7_1_1\include,P:\PRESTO2\NORTI_12\inc prr0016.c 

