SH SERIES C/C++ Compiler (Ver. checker(2003.03.17))                                              16-Nov-2009 12:33:32  PAGE    1

************ OBJECT LISTING ************

FILE NAME: prr0023.c

SCT OFFSET   CODE       C LABEL     INSTRUCTION OPERAND    COMMENT

P   00000000              _pr_scan_wei_parm:               ; function: pr_scan_wei_parm
                                                           ; frame size=36
    00000000 2FB6                   MOV.L       R11,@-R15
    00000002 2FC6                   MOV.L       R12,@-R15
    00000004 2FD6                   MOV.L       R13,@-R15
    00000006 2FE6                   MOV.L       R14,@-R15
    00000008 4F22                   STS.L       PR,@-R15
    0000000A 7FF0                   ADD         #-16,R15
    0000000C 6543                   MOV         R4,R5
    0000000E 1F53                   MOV.L       R5,@(12,R15)
    00000010 8455                   MOV.B       @(5,R5),R0
    00000012 6203                   MOV         R0,R2
    00000014 662C                   EXTU.B      R2,R6
    00000016 666C                   EXTU.B      R6,R6
    00000018 E339                   MOV         #57,R3     ; H'00000039
    0000001A 3637                   CMP/GT      R3,R6
    0000001C 8B07                   BF          L12
    0000001E 8455                   MOV.B       @(5,R5),R0
    00000020 6203                   MOV         R0,R2
    00000022 662C                   EXTU.B      R2,R6
    00000024 666C                   EXTU.B      R6,R6
    00000026 6263                   MOV         R6,R2
    00000028 72C9                   ADD         #-55,R2
    0000002A A006                   BRA         L13
    0000002C 0009                   NOP
    0000002E              L12:
    0000002E 8455                   MOV.B       @(5,R5),R0
    00000030 6203                   MOV         R0,R2
    00000032 662C                   EXTU.B      R2,R6
    00000034 666C                   EXTU.B      R6,R6
    00000036 6263                   MOV         R6,R2
    00000038 72D0                   ADD         #-48,R2
    0000003A              L13:
    0000003A 6623                   MOV         R2,R6
    0000003C 6363                   MOV         R6,R3
    0000003E D187                   MOV.L       L29+2,R1   ; _prr0023s
    00000040 2130                   MOV.B       R3,@R1
    00000042 6453                   MOV         R5,R4
    00000044 7406                   ADD         #6,R4
    00000046 D386                   MOV.L       L29+6,R3   ; _htoc
    00000048 430B                   JSR         @R3
    0000004A 0009                   NOP
    0000004C 6203                   MOV         R0,R2
    0000004E 632C                   EXTU.B      R2,R3
    00000050 D184                   MOV.L       L29+10,R1  ; H'00000001+_prr0023s
    00000052 2130                   MOV.B       R3,@R1
    00000054 55F3                   MOV.L       @(12,R15),R5
    00000056 8458                   MOV.B       @(8,R5),R0
    00000058 6603                   MOV         R0,R6
    0000005A 626C                   EXTU.B      R6,R2
    0000005C 622C                   EXTU.B      R2,R2
    0000005E E339                   MOV         #57,R3     ; H'00000039
    00000060 3237                   CMP/GT      R3,R2
    00000062 8B07                   BF          L15
    00000064 8458                   MOV.B       @(8,R5),R0
    00000066 6203                   MOV         R0,R2
    00000068 662C                   EXTU.B      R2,R6
    0000006A 666C                   EXTU.B      R6,R6
    0000006C 6263                   MOV         R6,R2
    0000006E 72C9                   ADD         #-55,R2
    00000070 A006                   BRA         L16
    00000072 0009                   NOP
    00000074              L15:
    00000074 8458                   MOV.B       @(8,R5),R0
    00000076 6203                   MOV         R0,R2
    00000078 662C                   EXTU.B      R2,R6
    0000007A 666C                   EXTU.B      R6,R6
    0000007C 6263                   MOV         R6,R2
    0000007E 72D0                   ADD         #-48,R2
    00000080              L16:
    00000080 6623                   MOV         R2,R6
    00000082 6363                   MOV         R6,R3
    00000084 D178                   MOV.L       L29+14,R1  ; H'00000002+_prr0023s
    00000086 2130                   MOV.B       R3,@R1
    00000088 ED00                   MOV         #0,R13     ; H'00000000
    0000008A 7509                   ADD         #9,R5
    0000008C 6E53                   MOV         R5,R14
    0000008E D376                   MOV.L       L29+14,R3  ; H'00000002+_prr0023s
    00000090 6330                   MOV.B       @R3,R3
    00000092 633C                   EXTU.B      R3,R3
    00000094 6233                   MOV         R3,R2
    00000096 3D23                   CMP/GE      R2,R13
    00000098 8B01                   BF          L31
    0000009A A119                   BRA         L17
    0000009C 0009                   NOP
    0000009E              L31:
    0000009E              L18:
    0000009E 64E3                   MOV         R14,R4
    000000A0 D372                   MOV.L       L29+18,R3  ; _htol
    000000A2 430B                   JSR         @R3
    000000A4 0009                   NOP
    000000A6 6503                   MOV         R0,R5
    000000A8 D471                   MOV.L       L29+22,R4  ; H'00000004+_prr0023s
    000000AA 62D3                   MOV         R13,R2
    000000AC 6623                   MOV         R2,R6
    000000AE EC05                   MOV         #5,R12     ; H'00000005
    000000B0 42CD                   SHLD        R12,R2
    000000B2 4608                   SHLL2       R6
    000000B4 326C                   ADD         R6,R2
    000000B6 6023                   MOV         R2,R0
    000000B8 0456                   MOV.L       R5,@(R0,R4)
    000000BA 64E3                   MOV         R14,R4
    000000BC 7408                   ADD         #8,R4
    000000BE D36B                   MOV.L       L29+18,R3  ; _htol
    000000C0 430B                   JSR         @R3
    000000C2 0009                   NOP
    000000C4 6203                   MOV         R0,R2
    000000C6 6023                   MOV         R2,R0
    000000C8 6203                   MOV         R0,R2
    000000CA D669                   MOV.L       L29+22,R6  ; H'00000004+_prr0023s
    000000CC 7604                   ADD         #4,R6
    000000CE 65D3                   MOV         R13,R5
    000000D0 6453                   MOV         R5,R4
    000000D2 45CD                   SHLD        R12,R5
    000000D4 4408                   SHLL2       R4
    000000D6 354C                   ADD         R4,R5
    000000D8 6053                   MOV         R5,R0
    000000DA 0626                   MOV.L       R2,@(R0,R6)
    000000DC 64E3                   MOV         R14,R4
    000000DE 7410                   ADD         #16,R4
    000000E0 D364                   MOV.L       L29+26,R3  ; _htoi
    000000E2 430B                   JSR         @R3
    000000E4 0009                   NOP
    000000E6 6203                   MOV         R0,R2
    000000E8 642D                   EXTU.W      R2,R4
    000000EA D561                   MOV.L       L29+22,R5  ; H'00000004+_prr0023s
    000000EC 7508                   ADD         #8,R5
    000000EE 62D3                   MOV         R13,R2
    000000F0 6623                   MOV         R2,R6
    000000F2 42CD                   SHLD        R12,R2
    000000F4 4608                   SHLL2       R6
    000000F6 326C                   ADD         R6,R2
    000000F8 6023                   MOV         R2,R0
    000000FA 0545                   MOV.W       R4,@(R0,R5)
    000000FC 64E3                   MOV         R14,R4
    000000FE 7414                   ADD         #20,R4
    00000100 D35C                   MOV.L       L29+26,R3  ; _htoi
    00000102 430B                   JSR         @R3
    00000104 0009                   NOP
    00000106 6203                   MOV         R0,R2
    00000108 642D                   EXTU.W      R2,R4
    0000010A D559                   MOV.L       L29+22,R5  ; H'00000004+_prr0023s
    0000010C 750A                   ADD         #10,R5
    0000010E 66D3                   MOV         R13,R6
    00000110 6263                   MOV         R6,R2
    00000112 46CD                   SHLD        R12,R6
    00000114 4208                   SHLL2       R2
    00000116 362C                   ADD         R2,R6
    00000118 6063                   MOV         R6,R0
    0000011A 0545                   MOV.W       R4,@(R0,R5)
    0000011C 64E3                   MOV         R14,R4
    0000011E 7418                   ADD         #24,R4
    00000120 D354                   MOV.L       L29+26,R3  ; _htoi
    00000122 430B                   JSR         @R3
    00000124 0009                   NOP
    00000126 6203                   MOV         R0,R2
    00000128 642D                   EXTU.W      R2,R4
    0000012A D551                   MOV.L       L29+22,R5  ; H'00000004+_prr0023s
    0000012C 750C                   ADD         #12,R5
    0000012E 62D3                   MOV         R13,R2
    00000130 6623                   MOV         R2,R6
    00000132 42CD                   SHLD        R12,R2
    00000134 4608                   SHLL2       R6
    00000136 326C                   ADD         R6,R2
    00000138 6023                   MOV         R2,R0
    0000013A 0545                   MOV.W       R4,@(R0,R5)
    0000013C 64E3                   MOV         R14,R4
    0000013E 741C                   ADD         #28,R4
    00000140 D34C                   MOV.L       L29+26,R3  ; _htoi
    00000142 430B                   JSR         @R3
    00000144 0009                   NOP
    00000146 6203                   MOV         R0,R2
    00000148 642D                   EXTU.W      R2,R4
    0000014A D649                   MOV.L       L29+22,R6  ; H'00000004+_prr0023s
    0000014C 760E                   ADD         #14,R6
    0000014E 62D3                   MOV         R13,R2
    00000150 6523                   MOV         R2,R5
    00000152 42CD                   SHLD        R12,R2
    00000154 4508                   SHLL2       R5
    00000156 325C                   ADD         R5,R2
    00000158 6023                   MOV         R2,R0
    0000015A 0645                   MOV.W       R4,@(R0,R6)
    0000015C 64E3                   MOV         R14,R4
    0000015E 7420                   ADD         #32,R4
    00000160 D33F                   MOV.L       L29+6,R3   ; _htoc
    00000162 430B                   JSR         @R3
    00000164 0009                   NOP
    00000166 6203                   MOV         R0,R2
    00000168 642C                   EXTU.B      R2,R4
    0000016A D641                   MOV.L       L29+22,R6  ; H'00000004+_prr0023s
    0000016C 7610                   ADD         #16,R6
    0000016E 65D3                   MOV         R13,R5
    00000170 6253                   MOV         R5,R2
    00000172 45CD                   SHLD        R12,R5
    00000174 4208                   SHLL2       R2
    00000176 352C                   ADD         R2,R5
    00000178 6053                   MOV         R5,R0
    0000017A 0644                   MOV.B       R4,@(R0,R6)
    0000017C 64E3                   MOV         R14,R4
    0000017E 7422                   ADD         #34,R4
    00000180 D337                   MOV.L       L29+6,R3   ; _htoc
    00000182 430B                   JSR         @R3
    00000184 0009                   NOP
    00000186 6203                   MOV         R0,R2
    00000188 642C                   EXTU.B      R2,R4
    0000018A D639                   MOV.L       L29+22,R6  ; H'00000004+_prr0023s
    0000018C 7611                   ADD         #17,R6
    0000018E 62D3                   MOV         R13,R2
    00000190 6523                   MOV         R2,R5
    00000192 42CD                   SHLD        R12,R2
    00000194 4508                   SHLL2       R5
    00000196 325C                   ADD         R5,R2
    00000198 6023                   MOV         R2,R0
    0000019A 0644                   MOV.B       R4,@(R0,R6)
    0000019C 64E3                   MOV         R14,R4
    0000019E 7424                   ADD         #36,R4
    000001A0 D32F                   MOV.L       L29+6,R3   ; _htoc
    000001A2 430B                   JSR         @R3
    000001A4 0009                   NOP
    000001A6 6203                   MOV         R0,R2
    000001A8 642C                   EXTU.B      R2,R4
    000001AA D531                   MOV.L       L29+22,R5  ; H'00000004+_prr0023s
    000001AC 7512                   ADD         #18,R5
    000001AE 62D3                   MOV         R13,R2
    000001B0 6623                   MOV         R2,R6
    000001B2 42CD                   SHLD        R12,R2
    000001B4 4608                   SHLL2       R6
    000001B6 326C                   ADD         R6,R2
    000001B8 6023                   MOV         R2,R0
    000001BA 0544                   MOV.B       R4,@(R0,R5)
    000001BC 64E3                   MOV         R14,R4
    000001BE 7426                   ADD         #38,R4
    000001C0 D32C                   MOV.L       L29+26,R3  ; _htoi
    000001C2 430B                   JSR         @R3
    000001C4 0009                   NOP
    000001C6 6203                   MOV         R0,R2
    000001C8 642D                   EXTU.W      R2,R4
    000001CA D629                   MOV.L       L29+22,R6  ; H'00000004+_prr0023s
    000001CC 7614                   ADD         #20,R6
    000001CE 62D3                   MOV         R13,R2
    000001D0 6523                   MOV         R2,R5
    000001D2 42CD                   SHLD        R12,R2
    000001D4 4508                   SHLL2       R5
    000001D6 325C                   ADD         R5,R2
    000001D8 6023                   MOV         R2,R0
    000001DA 0645                   MOV.W       R4,@(R0,R6)
    000001DC 64E3                   MOV         R14,R4
    000001DE 742A                   ADD         #42,R4
    000001E0 D31F                   MOV.L       L29+6,R3   ; _htoc
    000001E2 430B                   JSR         @R3
    000001E4 0009                   NOP
    000001E6 6203                   MOV         R0,R2
    000001E8 642C                   EXTU.B      R2,R4
    000001EA D621                   MOV.L       L29+22,R6  ; H'00000004+_prr0023s
    000001EC 7616                   ADD         #22,R6
    000001EE 62D3                   MOV         R13,R2
    000001F0 6523                   MOV         R2,R5
    000001F2 42CD                   SHLD        R12,R2
    000001F4 4508                   SHLL2       R5
    000001F6 325C                   ADD         R5,R2
    000001F8 6023                   MOV         R2,R0
    000001FA 0644                   MOV.B       R4,@(R0,R6)
    000001FC E02C                   MOV         #44,R0     ; H'0000002C
    000001FE 02EC                   MOV.B       @(R0,R14),R2
    00000200 662C                   EXTU.B      R2,R6
    00000202 666C                   EXTU.B      R6,R6
    00000204 E339                   MOV         #57,R3     ; H'00000039
    00000206 3637                   CMP/GT      R3,R6
    00000208 8B06                   BF          L20
    0000020A E02C                   MOV         #44,R0     ; H'0000002C
    0000020C 06EC                   MOV.B       @(R0,R14),R6
    0000020E 626C                   EXTU.B      R6,R2
    00000210 622C                   EXTU.B      R2,R2
    00000212 72C9                   ADD         #-55,R2
    00000214 A006                   BRA         L21
    00000216 0009                   NOP
    00000218              L20:
    00000218 E02C                   MOV         #44,R0     ; H'0000002C
    0000021A 02EC                   MOV.B       @(R0,R14),R2
    0000021C 662C                   EXTU.B      R2,R6
    0000021E 666C                   EXTU.B      R6,R6
    00000220 6263                   MOV         R6,R2
    00000222 72D0                   ADD         #-48,R2
    00000224              L21:
    00000224 6623                   MOV         R2,R6
    00000226 666C                   EXTU.B      R6,R6
    00000228 D411                   MOV.L       L29+22,R4  ; H'00000004+_prr0023s
    0000022A 7418                   ADD         #24,R4
    0000022C 62D3                   MOV         R13,R2
    0000022E 6523                   MOV         R2,R5
    00000230 E305                   MOV         #5,R3      ; H'00000005
    00000232 423D                   SHLD        R3,R2
    00000234 4508                   SHLL2       R5
    00000236 325C                   ADD         R5,R2
    00000238 6023                   MOV         R2,R0
    0000023A 0466                   MOV.L       R6,@(R0,R4)
    0000023C E02D                   MOV         #45,R0     ; H'0000002D
    0000023E 02EC                   MOV.B       @(R0,R14),R2
    00000240 662C                   EXTU.B      R2,R6
    00000242 666C                   EXTU.B      R6,R6
    00000244 E339                   MOV         #57,R3     ; H'00000039
    00000246 3637                   CMP/GT      R3,R6
    00000248 8B16                   BF          L23
    0000024A E02D                   MOV         #45,R0     ; H'0000002D
    0000024C 02EC                   MOV.B       @(R0,R14),R2
    0000024E 662C                   EXTU.B      R2,R6
    00000250 666C                   EXTU.B      R6,R6
    00000252 6263                   MOV         R6,R2
    00000254 72C9                   ADD         #-55,R2
    00000256 A015                   BRA         L24
    00000258 0009                   NOP
    0000025A              L29:
    0000025A 00000002               .RES.W      1
    0000025C <00000000>             .DATA.L     _prr0023s
    00000260 <00000000>             .DATA.L     _htoc
    00000264 <00000001>             .DATA.L     H'00000001+_prr0023s
    00000268 <00000002>             .DATA.L     H'00000002+_prr0023s
    0000026C <00000000>             .DATA.L     _htol
    00000270 <00000004>             .DATA.L     H'00000004+_prr0023s
    00000274 <00000000>             .DATA.L     _htoi
    00000278              L23:
    00000278 E02D                   MOV         #45,R0     ; H'0000002D
    0000027A 02EC                   MOV.B       @(R0,R14),R2
    0000027C 662C                   EXTU.B      R2,R6
    0000027E 666C                   EXTU.B      R6,R6
    00000280 6263                   MOV         R6,R2
    00000282 72D0                   ADD         #-48,R2
    00000284              L24:
    00000284 6623                   MOV         R2,R6
    00000286 666C                   EXTU.B      R6,R6
    00000288 D559                   MOV.L       L30+2,R5   ; H'00000004+_prr0023s
    0000028A 751C                   ADD         #28,R5
    0000028C 64D3                   MOV         R13,R4
    0000028E 6243                   MOV         R4,R2
    00000290 EB05                   MOV         #5,R11     ; H'00000005
    00000292 44BD                   SHLD        R11,R4
    00000294 4208                   SHLL2       R2
    00000296 342C                   ADD         R2,R4
    00000298 6043                   MOV         R4,R0
    0000029A 0566                   MOV.L       R6,@(R0,R5)
    0000029C 64E3                   MOV         R14,R4
    0000029E 742E                   ADD         #46,R4
    000002A0 D354                   MOV.L       L30+6,R3   ; _htoc
    000002A2 430B                   JSR         @R3
    000002A4 0009                   NOP
    000002A6 6203                   MOV         R0,R2
    000002A8 642C                   EXTU.B      R2,R4
    000002AA D251                   MOV.L       L30+2,R2   ; H'00000004+_prr0023s
    000002AC 7220                   ADD         #32,R2
    000002AE 66D3                   MOV         R13,R6
    000002B0 6563                   MOV         R6,R5
    000002B2 46BD                   SHLD        R11,R6
    000002B4 4508                   SHLL2       R5
    000002B6 365C                   ADD         R5,R6
    000002B8 6063                   MOV         R6,R0
    000002BA 0244                   MOV.B       R4,@(R0,R2)
    000002BC 7D01                   ADD         #1,R13
    000002BE 7E30                   ADD         #48,R14
    000002C0 D34D                   MOV.L       L30+10,R3  ; H'00000002+_prr0023s
    000002C2 6330                   MOV.B       @R3,R3
    000002C4 633C                   EXTU.B      R3,R3
    000002C6 6233                   MOV         R3,R2
    000002C8 3D23                   CMP/GE      R2,R13
    000002CA 8901                   BT          L32
    000002CC AEE7                   BRA         L18
    000002CE 0009                   NOP
    000002D0              L32:
    000002D0              L17:
    000002D0 64E3                   MOV         R14,R4
    000002D2 D34A                   MOV.L       L30+14,R3  ; _htol
    000002D4 430B                   JSR         @R3
    000002D6 0009                   NOP
    000002D8 6203                   MOV         R0,R2
    000002DA 6023                   MOV         R2,R0
    000002DC 6203                   MOV         R0,R2
    000002DE 6323                   MOV         R2,R3
    000002E0 D147                   MOV.L       L30+18,R1  ; H'00000124+_prr0023s
    000002E2 2132                   MOV.L       R3,@R1
    000002E4 7E08                   ADD         #8,R14
    000002E6 64E3                   MOV         R14,R4
    000002E8 D346                   MOV.L       L30+22,R3  ; _htoi
    000002EA 430B                   JSR         @R3
    000002EC 0009                   NOP
    000002EE 6203                   MOV         R0,R2
    000002F0 632D                   EXTU.W      R2,R3
    000002F2 D145                   MOV.L       L30+26,R1  ; H'00000128+_prr0023s
    000002F4 2131                   MOV.W       R3,@R1
    000002F6 7E04                   ADD         #4,R14
    000002F8 64E3                   MOV         R14,R4
    000002FA D342                   MOV.L       L30+22,R3  ; _htoi
    000002FC 430B                   JSR         @R3
    000002FE 0009                   NOP
    00000300 6203                   MOV         R0,R2
    00000302 632D                   EXTU.W      R2,R3
    00000304 D141                   MOV.L       L30+30,R1  ; H'0000012A+_prr0023s
    00000306 2131                   MOV.W       R3,@R1
    00000308 7E04                   ADD         #4,R14
    0000030A 64E3                   MOV         R14,R4
    0000030C D33D                   MOV.L       L30+22,R3  ; _htoi
    0000030E 430B                   JSR         @R3
    00000310 0009                   NOP
    00000312 6203                   MOV         R0,R2
    00000314 632D                   EXTU.W      R2,R3
    00000316 D13E                   MOV.L       L30+34,R1  ; H'0000012C+_prr0023s
    00000318 2131                   MOV.W       R3,@R1
    0000031A 7E04                   ADD         #4,R14
    0000031C 64E3                   MOV         R14,R4
    0000031E D339                   MOV.L       L30+22,R3  ; _htoi
    00000320 430B                   JSR         @R3
    00000322 0009                   NOP
    00000324 6203                   MOV         R0,R2
    00000326 642D                   EXTU.W      R2,R4
    00000328 6343                   MOV         R4,R3
    0000032A D13A                   MOV.L       L30+38,R1  ; H'0000012E+_prr0023s
    0000032C 2131                   MOV.W       R3,@R1
    0000032E 7E04                   ADD         #4,R14
    00000330 64E3                   MOV         R14,R4
    00000332 D330                   MOV.L       L30+6,R3   ; _htoc
    00000334 430B                   JSR         @R3
    00000336 0009                   NOP
    00000338 6203                   MOV         R0,R2
    0000033A 632C                   EXTU.B      R2,R3
    0000033C D136                   MOV.L       L30+42,R1  ; H'00000130+_prr0023s
    0000033E 2130                   MOV.B       R3,@R1
    00000340 7E02                   ADD         #2,R14
    00000342 64E3                   MOV         R14,R4
    00000344 D32B                   MOV.L       L30+6,R3   ; _htoc
    00000346 430B                   JSR         @R3
    00000348 0009                   NOP
    0000034A 6203                   MOV         R0,R2
    0000034C 632C                   EXTU.B      R2,R3
    0000034E D133                   MOV.L       L30+46,R1  ; H'00000131+_prr0023s
    00000350 2130                   MOV.B       R3,@R1
    00000352 7E02                   ADD         #2,R14
    00000354 64E3                   MOV         R14,R4
    00000356 D327                   MOV.L       L30+6,R3   ; _htoc
    00000358 430B                   JSR         @R3
    0000035A 0009                   NOP
    0000035C 6203                   MOV         R0,R2
    0000035E 632C                   EXTU.B      R2,R3
    00000360 D12F                   MOV.L       L30+50,R1  ; H'00000132+_prr0023s
    00000362 2130                   MOV.B       R3,@R1
    00000364 7E02                   ADD         #2,R14
    00000366 64E3                   MOV         R14,R4
    00000368 D326                   MOV.L       L30+22,R3  ; _htoi
    0000036A 430B                   JSR         @R3
    0000036C 0009                   NOP
    0000036E 6203                   MOV         R0,R2
    00000370 632D                   EXTU.W      R2,R3
    00000372 D12C                   MOV.L       L30+54,R1  ; H'00000134+_prr0023s
    00000374 2131                   MOV.W       R3,@R1
    00000376 7E04                   ADD         #4,R14
    00000378 64E3                   MOV         R14,R4
    0000037A D31E                   MOV.L       L30+6,R3   ; _htoc
    0000037C 430B                   JSR         @R3
    0000037E 0009                   NOP
    00000380 6203                   MOV         R0,R2
    00000382 632C                   EXTU.B      R2,R3
    00000384 D128                   MOV.L       L30+58,R1  ; H'00000136+_prr0023s
    00000386 2130                   MOV.B       R3,@R1
    00000388 7E02                   ADD         #2,R14
    0000038A 66E0                   MOV.B       @R14,R6
    0000038C 626C                   EXTU.B      R6,R2
    0000038E 622C                   EXTU.B      R2,R2
    00000390 E339                   MOV         #57,R3     ; H'00000039
    00000392 3237                   CMP/GT      R3,R2
    00000394 8B05                   BF          L26
    00000396 62E0                   MOV.B       @R14,R2
    00000398 662C                   EXTU.B      R2,R6
    0000039A 666C                   EXTU.B      R6,R6
    0000039C 76C9                   ADD         #-55,R6
    0000039E A004                   BRA         L27
    000003A0 0009                   NOP
    000003A2              L26:
    000003A2 62E0                   MOV.B       @R14,R2
    000003A4 662C                   EXTU.B      R2,R6
    000003A6 666C                   EXTU.B      R6,R6
    000003A8 76D0                   ADD         #-48,R6
    000003AA              L27:
    000003AA 666C                   EXTU.B      R6,R6
    000003AC 6263                   MOV         R6,R2
    000003AE 6323                   MOV         R2,R3
    000003B0 D11E                   MOV.L       L30+62,R1  ; H'00000138+_prr0023s
    000003B2 2132                   MOV.L       R3,@R1
    000003B4 7E01                   ADD         #1,R14
    000003B6 64E3                   MOV         R14,R4
    000003B8 D312                   MOV.L       L30+22,R3  ; _htoi
    000003BA 430B                   JSR         @R3
    000003BC 0009                   NOP
    000003BE 6203                   MOV         R0,R2
    000003C0 632D                   EXTU.W      R2,R3
    000003C2 D11B                   MOV.L       L30+66,R1  ; H'0000013C+_prr0023s
    000003C4 2131                   MOV.W       R3,@R1
    000003C6 7E04                   ADD         #4,R14
    000003C8 64E3                   MOV         R14,R4
    000003CA D30A                   MOV.L       L30+6,R3   ; _htoc
    000003CC 430B                   JSR         @R3
    000003CE 0009                   NOP
    000003D0 6203                   MOV         R0,R2
    000003D2 632C                   EXTU.B      R2,R3
    000003D4 D117                   MOV.L       L30+70,R1  ; H'0000013E+_prr0023s
    000003D6 2130                   MOV.B       R3,@R1
    000003D8 7E02                   ADD         #2,R14
    000003DA E200                   MOV         #0,R2      ; H'00000000
    000003DC 6023                   MOV         R2,R0
    000003DE 7F10                   ADD         #16,R15
    000003E0 4F26                   LDS.L       @R15+,PR
    000003E2 6EF6                   MOV.L       @R15+,R14
    000003E4 6DF6                   MOV.L       @R15+,R13
    000003E6 6CF6                   MOV.L       @R15+,R12
    000003E8 6BF6                   MOV.L       @R15+,R11
    000003EA 000B                   RTS
    000003EC 0009                   NOP
    000003EE              L30:
    000003EE 00000002               .RES.W      1
    000003F0 <00000004>             .DATA.L     H'00000004+_prr0023s
    000003F4 <00000000>             .DATA.L     _htoc
    000003F8 <00000002>             .DATA.L     H'00000002+_prr0023s
    000003FC <00000000>             .DATA.L     _htol
    00000400 <00000124>             .DATA.L     H'00000124+_prr0023s
    00000404 <00000000>             .DATA.L     _htoi
    00000408 <00000128>             .DATA.L     H'00000128+_prr0023s
    0000040C <0000012A>             .DATA.L     H'0000012A+_prr0023s
    00000410 <0000012C>             .DATA.L     H'0000012C+_prr0023s
    00000414 <0000012E>             .DATA.L     H'0000012E+_prr0023s
    00000418 <00000130>             .DATA.L     H'00000130+_prr0023s
    0000041C <00000131>             .DATA.L     H'00000131+_prr0023s
    00000420 <00000132>             .DATA.L     H'00000132+_prr0023s
    00000424 <00000134>             .DATA.L     H'00000134+_prr0023s
    00000428 <00000136>             .DATA.L     H'00000136+_prr0023s
    0000042C <00000138>             .DATA.L     H'00000138+_prr0023s
    00000430 <0000013C>             .DATA.L     H'0000013C+_prr0023s
    00000434 <0000013E>             .DATA.L     H'0000013E+_prr0023s
B   00000000              _prr0023s:                       ; static: prr0023s
    00000000 00000004               .RES.L      80
SH SERIES C/C++ Compiler (Ver. checker(2003.03.17))                                              16-Nov-2009 12:33:32  PAGE    1


******** STATISTICS INFORMATION ********


********** ERROR INFORMATION ***********

NUMBER OF ERRORS:           0
NUMBER OF WARNINGS:         0
NUMBER OF INFORMATIONS:     0



******* SOURCE LINE INFORMATION ********

COMPILED SOURCE LINE:      101



******* SECTION SIZE INFORMATION *******

PROGRAM  SECTION (P):                               00000438 Byte(s)
CONSTANT SECTION (C):                               00000000 Byte(s)
DATA     SECTION (D):                               00000000 Byte(s)
BSS      SECTION (B):                               00000140 Byte(s)

TOTAL PROGRAM  SECTION: 00000438 Byte(s)
TOTAL CONSTANT SECTION: 00000000 Byte(s)
TOTAL DATA     SECTION: 00000000 Byte(s)
TOTAL BSS      SECTION: 00000140 Byte(s)

    TOTAL PROGRAM SIZE: 00000578 Byte(s)



********** LABEL INFORMATION ***********

NUMBER OF EXTERNAL REFERENCE SYMBOLS:            3
NUMBER OF EXTERNAL DEFINITION SYMBOLS:           2
NUMBER OF INTERNAL/EXTERNAL SYMBOLS:            21
*** COMMAND PARAMETER ***


  -cpu=sh3 -op=0 -en=big -me -debug -comment=nest -l -def=DEBUG -i=P:\PRESTO2\SHINC,C:\usr\local\SH\7_1_1\include,P:\PRESTO2\NORTI_12\inc prr0023.c 

